
loader.elf:     file format elf32-i386


Disassembly of section .header:

00007d00 <setup>:
    7d00:	66 55                	push   %ebp
    7d02:	66 89 e5             	mov    %esp,%ebp
    7d05:	66 83 ec 18          	sub    $0x18,%esp
    7d09:	67 66 89 45 f4       	mov    %eax,-0xc(%ebp)
    7d0e:	66 e8 6f 37 00 00    	calll  b483 <console_init>
    7d14:	66 b8 cb b4 00 00    	mov    $0xb4cb,%eax
    7d1a:	66 e8 db 00 00 00    	calll  7dfb <puts>
    7d20:	67 66 8b 45 f4       	mov    -0xc(%ebp),%eax
    7d25:	67 66 8b 10          	mov    (%eax),%edx
    7d29:	66 89 16 30 c9       	mov    %edx,-0x36d0
    7d2e:	67 66 8b 50 04       	mov    0x4(%eax),%edx
    7d33:	66 89 16 34 c9       	mov    %edx,-0x36cc
    7d38:	67 66 8b 50 08       	mov    0x8(%eax),%edx
    7d3d:	66 89 16 38 c9       	mov    %edx,-0x36c8
    7d42:	67 66 8b 50 0c       	mov    0xc(%eax),%edx
    7d47:	66 89 16 3c c9       	mov    %edx,-0x36c4
    7d4c:	67 66 8b 50 10       	mov    0x10(%eax),%edx
    7d51:	66 89 16 40 c9       	mov    %edx,-0x36c0
    7d56:	67 66 8b 50 14       	mov    0x14(%eax),%edx
    7d5b:	66 89 16 44 c9       	mov    %edx,-0x36bc
    7d60:	67 66 8b 40 18       	mov    0x18(%eax),%eax
    7d65:	66 a3 48 c9          	mov    %eax,0xc948
    7d69:	66 b8 30 c9 00 00    	mov    $0xc930,%eax
    7d6f:	66 e8 e5 05 00 00    	calll  835a <e820_detect>
    7d75:	66 e8 61 2a 00 00    	calll  a7dc <enable_a20>
    7d7b:	66 b8 30 c9 00 00    	mov    $0xc930,%eax
    7d81:	66 e8 b5 00 00 00    	calll  7e3c <__end_init>
    7d87:	66 e8 2e 16 00 00    	calll  93bb <set_video>
    7d8d:	66 e8 3c 28 00 00    	calll  a5cf <go_to_protected_mode>
    7d93:	eb fe                	jmp    7d93 <setup+0x93>

Disassembly of section inittext:

00007d95 <my_putchar>:
    7d95:	66 55                	push   %ebp
    7d97:	66 89 e5             	mov    %esp,%ebp
    7d9a:	66 83 ec 48          	sub    $0x48,%esp
    7d9e:	67 66 89 45 c4       	mov    %eax,-0x3c(%ebp)
    7da3:	67 66 83 7d c4 0a    	cmpl   $0xa,-0x3c(%ebp)
    7da9:	75 0c                	jne    7db7 <my_putchar+0x22>
    7dab:	66 b8 0d 00 00 00    	mov    $0xd,%eax
    7db1:	66 e8 de ff ff ff    	calll  7d95 <my_putchar>
    7db7:	67 66 8d 45 cc       	lea    -0x34(%ebp),%eax
    7dbc:	66 e8 ac 04 00 00    	calll  826e <initregs>
    7dc2:	67 c7 45 dc 07 00    	movw   $0x7,-0x24(%ebp)
    7dc8:	67 c7 45 e4 01 00    	movw   $0x1,-0x1c(%ebp)
    7dce:	67 c6 45 e9 0e       	movb   $0xe,-0x17(%ebp)
    7dd3:	67 66 8b 45 c4       	mov    -0x3c(%ebp),%eax
    7dd8:	67 88 45 e8          	mov    %al,-0x18(%ebp)
    7ddc:	67 66 8d 45 cc       	lea    -0x34(%ebp),%eax
    7de1:	66 b9 00 00 00 00    	mov    $0x0,%ecx
    7de7:	66 89 c2             	mov    %eax,%edx
    7dea:	66 b8 10 00 00 00    	mov    $0x10,%eax
    7df0:	66 e8 05 05 00 00    	calll  82fb <intcall>
    7df6:	90                   	nop
    7df7:	66 c9                	leavel 
    7df9:	66 c3                	retl   

00007dfb <puts>:
    7dfb:	66 55                	push   %ebp
    7dfd:	66 89 e5             	mov    %esp,%ebp
    7e00:	66 83 ec 18          	sub    $0x18,%esp
    7e04:	67 66 89 45 f4       	mov    %eax,-0xc(%ebp)
    7e09:	eb 1e                	jmp    7e29 <puts+0x2e>
    7e0b:	67 66 8b 45 f4       	mov    -0xc(%ebp),%eax
    7e10:	67 66 8d 50 01       	lea    0x1(%eax),%edx
    7e15:	67 66 89 55 f4       	mov    %edx,-0xc(%ebp)
    7e1a:	67 66 0f b6 00       	movzbl (%eax),%eax
    7e1f:	66 0f be c0          	movsbl %al,%eax
    7e23:	66 e8 6c ff ff ff    	calll  7d95 <my_putchar>
    7e29:	67 66 8b 45 f4       	mov    -0xc(%ebp),%eax
    7e2e:	67 66 0f b6 00       	movzbl (%eax),%eax
    7e33:	84 c0                	test   %al,%al
    7e35:	75 d4                	jne    7e0b <puts+0x10>
    7e37:	90                   	nop
    7e38:	66 c9                	leavel 
    7e3a:	66 c3                	retl   

Disassembly of section .text:

00007e3c <load_kernel>:
    7e3c:	66 55                	push   %ebp
    7e3e:	66 89 e5             	mov    %esp,%ebp
    7e41:	66 57                	push   %edi
    7e43:	66 81 ec 44 02 00 00 	sub    $0x244,%esp
    7e4a:	67 66 89 85 c4 fd ff 	mov    %eax,-0x23c(%ebp)
    7e51:	ff 
    7e52:	67 66 8d 95 d4 fd ff 	lea    -0x22c(%ebp),%edx
    7e59:	ff 
    7e5a:	66 b8 00 00 00 00    	mov    $0x0,%eax
    7e60:	66 b9 80 00 00 00    	mov    $0x80,%ecx
    7e66:	66 89 d7             	mov    %edx,%edi
    7e69:	66 f3 ab             	rep stos %eax,%es:(%di)
    7e6c:	67 66 8b 85 c4 fd ff 	mov    -0x23c(%ebp),%eax
    7e73:	ff 
    7e74:	67 66 8b 40 14       	mov    0x14(%eax),%eax
    7e79:	66 2d 00 04 00 00    	sub    $0x400,%eax
    7e7f:	67 66 89 45 f4       	mov    %eax,-0xc(%ebp)
    7e84:	67 66 8b 85 c4 fd ff 	mov    -0x23c(%ebp),%eax
    7e8b:	ff 
    7e8c:	67 66 8b 40 18       	mov    0x18(%eax),%eax
    7e91:	67 66 89 45 f0       	mov    %eax,-0x10(%ebp)
    7e96:	67 66 c7 45 e0 01 00 	movl   $0x1,-0x20(%ebp)
    7e9d:	00 00 
    7e9f:	67 66 8d 85 d4 fd ff 	lea    -0x22c(%ebp),%eax
    7ea6:	ff 
    7ea7:	67 66 89 45 dc       	mov    %eax,-0x24(%ebp)
    7eac:	67 66 8b 85 c4 fd ff 	mov    -0x23c(%ebp),%eax
    7eb3:	ff 
    7eb4:	67 66 8b 40 0c       	mov    0xc(%eax),%eax
    7eb9:	67 66 8d 95 c8 fd ff 	lea    -0x238(%ebp),%edx
    7ec0:	ff 
    7ec1:	66 e8 43 34 00 00    	calll  b30a <fill_disk_drive>
    7ec7:	67 66 8d 8d d4 fd ff 	lea    -0x22c(%ebp),%ecx
    7ece:	ff 
    7ecf:	67 66 8b 55 f0       	mov    -0x10(%ebp),%edx
    7ed4:	67 66 8d 85 c8 fd ff 	lea    -0x238(%ebp),%eax
    7edb:	ff 
    7edc:	66 e8 88 34 00 00    	calll  b36a <read_block>
    7ee2:	67 66 8b 45 dc       	mov    -0x24(%ebp),%eax
    7ee7:	67 66 0f b6 00       	movzbl (%eax),%eax
    7eec:	3c 7f                	cmp    $0x7f,%al
    7eee:	75 2d                	jne    7f1d <load_kernel+0xe1>
    7ef0:	67 66 8b 45 dc       	mov    -0x24(%ebp),%eax
    7ef5:	67 66 0f b6 40 01    	movzbl 0x1(%eax),%eax
    7efb:	3c 45                	cmp    $0x45,%al
    7efd:	75 1e                	jne    7f1d <load_kernel+0xe1>
    7eff:	67 66 8b 45 dc       	mov    -0x24(%ebp),%eax
    7f04:	67 66 0f b6 40 02    	movzbl 0x2(%eax),%eax
    7f0a:	3c 4c                	cmp    $0x4c,%al
    7f0c:	75 0f                	jne    7f1d <load_kernel+0xe1>
    7f0e:	67 66 8b 45 dc       	mov    -0x24(%ebp),%eax
    7f13:	67 66 0f b6 40 03    	movzbl 0x3(%eax),%eax
    7f19:	3c 46                	cmp    $0x46,%al
    7f1b:	74 0f                	je     7f2c <load_kernel+0xf0>
    7f1d:	66 b8 c0 b4 00 00    	mov    $0xb4c0,%eax
    7f23:	66 e8 d2 fe ff ff    	calll  7dfb <puts>
    7f29:	e9 43 01             	jmp    806f <load_kernel+0x233>
    7f2c:	67 66 c7 45 d8 00 a0 	movl   $0xa000,-0x28(%ebp)
    7f33:	00 00 
    7f35:	67 66 8b 45 dc       	mov    -0x24(%ebp),%eax
    7f3a:	67 66 8b 50 1c       	mov    0x1c(%eax),%edx
    7f3f:	67 66 8b 45 dc       	mov    -0x24(%ebp),%eax
    7f44:	66 01 d0             	add    %edx,%eax
    7f47:	67 66 89 45 e4       	mov    %eax,-0x1c(%ebp)
    7f4c:	67 66 c7 45 ec 00 00 	movl   $0x0,-0x14(%ebp)
    7f53:	00 00 
    7f55:	e9 ff 00             	jmp    8057 <load_kernel+0x21b>
    7f58:	67 66 8b 45 e4       	mov    -0x1c(%ebp),%eax
    7f5d:	67 66 8b 00          	mov    (%eax),%eax
    7f61:	66 83 f8 01          	cmp    $0x1,%eax
    7f65:	0f 85 e2 00          	jne    804b <load_kernel+0x20f>
    7f69:	67 66 8b 45 e4       	mov    -0x1c(%ebp),%eax
    7f6e:	67 66 8b 40 0c       	mov    0xc(%eax),%eax
    7f73:	66 85 c0             	test   %eax,%eax
    7f76:	0f 84 d1 00          	je     804b <load_kernel+0x20f>
    7f7a:	67 66 8b 45 e4       	mov    -0x1c(%ebp),%eax
    7f7f:	67 66 8b 40 10       	mov    0x10(%eax),%eax
    7f84:	66 05 ff 01 00 00    	add    $0x1ff,%eax
    7f8a:	66 c1 e8 09          	shr    $0x9,%eax
    7f8e:	67 66 89 45 d4       	mov    %eax,-0x2c(%ebp)
    7f93:	67 66 8b 45 e4       	mov    -0x1c(%ebp),%eax
    7f98:	67 66 8b 50 04       	mov    0x4(%eax),%edx
    7f9d:	67 66 8b 45 d8       	mov    -0x28(%ebp),%eax
    7fa2:	66 01 d0             	add    %edx,%eax
    7fa5:	66 05 ff 01 00 00    	add    $0x1ff,%eax
    7fab:	66 c1 e8 09          	shr    $0x9,%eax
    7faf:	67 66 89 45 f0       	mov    %eax,-0x10(%ebp)
    7fb4:	67 66 8b 45 e4       	mov    -0x1c(%ebp),%eax
    7fb9:	67 66 8b 40 0c       	mov    0xc(%eax),%eax
    7fbe:	67 66 89 45 f4       	mov    %eax,-0xc(%ebp)
    7fc3:	67 66 c7 45 e8 00 00 	movl   $0x0,-0x18(%ebp)
    7fca:	00 00 
    7fcc:	eb 2d                	jmp    7ffb <load_kernel+0x1bf>
    7fce:	67 66 8b 4d f4       	mov    -0xc(%ebp),%ecx
    7fd3:	67 66 8b 55 f0       	mov    -0x10(%ebp),%edx
    7fd8:	67 66 8d 85 c8 fd ff 	lea    -0x238(%ebp),%eax
    7fdf:	ff 
    7fe0:	66 e8 84 33 00 00    	calll  b36a <read_block>
    7fe6:	67 66 83 45 f0 01    	addl   $0x1,-0x10(%ebp)
    7fec:	67 66 81 45 f4 00 02 	addl   $0x200,-0xc(%ebp)
    7ff3:	00 00 
    7ff5:	67 66 83 45 e8 01    	addl   $0x1,-0x18(%ebp)
    7ffb:	67 66 8b 45 e8       	mov    -0x18(%ebp),%eax
    8000:	67 66 3b 45 d4       	cmp    -0x2c(%ebp),%eax
    8005:	7c c7                	jl     7fce <load_kernel+0x192>
    8007:	67 66 8b 45 e4       	mov    -0x1c(%ebp),%eax
    800c:	67 66 8b 50 14       	mov    0x14(%eax),%edx
    8011:	67 66 8b 45 e4       	mov    -0x1c(%ebp),%eax
    8016:	67 66 8b 40 10       	mov    0x10(%eax),%eax
    801b:	66 39 c2             	cmp    %eax,%edx
    801e:	76 2b                	jbe    804b <load_kernel+0x20f>
    8020:	67 66 8b 45 e4       	mov    -0x1c(%ebp),%eax
    8025:	67 66 8b 50 14       	mov    0x14(%eax),%edx
    802a:	67 66 8b 45 e4       	mov    -0x1c(%ebp),%eax
    802f:	67 66 8b 40 10       	mov    0x10(%eax),%eax
    8034:	66 29 c2             	sub    %eax,%edx
    8037:	67 66 8b 45 f4       	mov    -0xc(%ebp),%eax
    803c:	66 89 d1             	mov    %edx,%ecx
    803f:	66 ba 00 00 00 00    	mov    $0x0,%edx
    8045:	66 e8 48 00 00 00    	calll  8093 <memset>
    804b:	67 66 83 45 e4 20    	addl   $0x20,-0x1c(%ebp)
    8051:	67 66 83 45 ec 01    	addl   $0x1,-0x14(%ebp)
    8057:	67 66 8b 45 dc       	mov    -0x24(%ebp),%eax
    805c:	67 66 0f b7 40 2c    	movzwl 0x2c(%eax),%eax
    8062:	66 0f b7 c0          	movzwl %ax,%eax
    8066:	67 66 3b 45 ec       	cmp    -0x14(%ebp),%eax
    806b:	0f 8f e9 fe          	jg     7f58 <load_kernel+0x11c>
    806f:	66 81 c4 44 02 00 00 	add    $0x244,%esp
    8076:	66 5f                	pop    %edi
    8078:	66 5d                	pop    %ebp
    807a:	66 c3                	retl   

0000807c <memcpy>:
    807c:	56                   	push   %si
    807d:	57                   	push   %di
    807e:	89 c7                	mov    %ax,%di
    8080:	89 d6                	mov    %dx,%si
    8082:	51                   	push   %cx
    8083:	c1 e9 02             	shr    $0x2,%cx
    8086:	f3 66 a5             	rep movsl %ds:(%si),%es:(%di)
    8089:	59                   	pop    %cx
    808a:	83 e1 03             	and    $0x3,%cx
    808d:	f3 a4                	rep movsb %ds:(%si),%es:(%di)
    808f:	5f                   	pop    %di
    8090:	5e                   	pop    %si
    8091:	66 c3                	retl   

00008093 <memset>:
    8093:	57                   	push   %di
    8094:	89 c7                	mov    %ax,%di
    8096:	66 0f b6 c2          	movzbl %dl,%eax
    809a:	66 69 c0 01 01 01 01 	imul   $0x1010101,%eax,%eax
    80a1:	51                   	push   %cx
    80a2:	c1 e9 02             	shr    $0x2,%cx
    80a5:	f3 66 ab             	rep stos %eax,%es:(%di)
    80a8:	59                   	pop    %cx
    80a9:	83 e1 03             	and    $0x3,%cx
    80ac:	f3 aa                	rep stos %al,%es:(%di)
    80ae:	5f                   	pop    %di
    80af:	66 c3                	retl   

000080b1 <copy_from_fs>:
    80b1:	1e                   	push   %ds
    80b2:	0f a0                	push   %fs
    80b4:	1f                   	pop    %ds
    80b5:	66 e8 c1 ff ff ff    	calll  807c <memcpy>
    80bb:	1f                   	pop    %ds
    80bc:	66 c3                	retl   

000080be <copy_to_fs>:
    80be:	06                   	push   %es
    80bf:	0f a0                	push   %fs
    80c1:	07                   	pop    %es
    80c2:	66 e8 b4 ff ff ff    	calll  807c <memcpy>
    80c8:	07                   	pop    %es
    80c9:	66 c3                	retl   

000080cb <gettime>:
    80cb:	66 55                	push   %ebp
    80cd:	66 89 e5             	mov    %esp,%ebp
    80d0:	66 83 ec 68          	sub    $0x68,%esp
    80d4:	67 66 8d 45 cc       	lea    -0x34(%ebp),%eax
    80d9:	66 e8 8f 01 00 00    	calll  826e <initregs>
    80df:	67 c6 45 e9 02       	movb   $0x2,-0x17(%ebp)
    80e4:	67 66 8d 55 a0       	lea    -0x60(%ebp),%edx
    80e9:	67 66 8d 45 cc       	lea    -0x34(%ebp),%eax
    80ee:	66 89 d1             	mov    %edx,%ecx
    80f1:	66 89 c2             	mov    %eax,%edx
    80f4:	66 b8 1a 00 00 00    	mov    $0x1a,%eax
    80fa:	66 e8 fb 01 00 00    	calll  82fb <intcall>
    8100:	67 66 0f b6 45 b5    	movzbl -0x4b(%ebp),%eax
    8106:	66 c9                	leavel 
    8108:	66 c3                	retl   

0000810a <kbd_pending>:
    810a:	66 55                	push   %ebp
    810c:	66 89 e5             	mov    %esp,%ebp
    810f:	66 83 ec 68          	sub    $0x68,%esp
    8113:	67 66 8d 45 cc       	lea    -0x34(%ebp),%eax
    8118:	66 e8 50 01 00 00    	calll  826e <initregs>
    811e:	67 c6 45 e9 01       	movb   $0x1,-0x17(%ebp)
    8123:	67 66 8d 55 a0       	lea    -0x60(%ebp),%edx
    8128:	67 66 8d 45 cc       	lea    -0x34(%ebp),%eax
    812d:	66 89 d1             	mov    %edx,%ecx
    8130:	66 89 c2             	mov    %eax,%edx
    8133:	66 b8 16 00 00 00    	mov    $0x16,%eax
    8139:	66 e8 bc 01 00 00    	calll  82fb <intcall>
    813f:	67 66 8b 45 c8       	mov    -0x38(%ebp),%eax
    8144:	66 83 e0 40          	and    $0x40,%eax
    8148:	66 85 c0             	test   %eax,%eax
    814b:	0f 94 c0             	sete   %al
    814e:	66 0f b6 c0          	movzbl %al,%eax
    8152:	66 c9                	leavel 
    8154:	66 c3                	retl   

00008156 <kbd_flush>:
    8156:	66 55                	push   %ebp
    8158:	66 89 e5             	mov    %esp,%ebp
    815b:	66 83 ec 08          	sub    $0x8,%esp
    815f:	66 e8 a5 ff ff ff    	calll  810a <kbd_pending>
    8165:	66 85 c0             	test   %eax,%eax
    8168:	74 08                	je     8172 <kbd_flush+0x1c>
    816a:	66 e8 75 00 00 00    	calll  81e5 <getchar>
    8170:	eb ed                	jmp    815f <kbd_flush+0x9>
    8172:	90                   	nop
    8173:	90                   	nop
    8174:	66 c9                	leavel 
    8176:	66 c3                	retl   

00008178 <getchar_timeout>:
    8178:	66 55                	push   %ebp
    817a:	66 89 e5             	mov    %esp,%ebp
    817d:	66 83 ec 18          	sub    $0x18,%esp
    8181:	67 66 c7 45 f4 1e 00 	movl   $0x1e,-0xc(%ebp)
    8188:	00 00 
    818a:	66 e8 3b ff ff ff    	calll  80cb <gettime>
    8190:	66 0f b6 c0          	movzbl %al,%eax
    8194:	67 66 89 45 f0       	mov    %eax,-0x10(%ebp)
    8199:	eb 3e                	jmp    81d9 <getchar_timeout+0x61>
    819b:	66 e8 69 ff ff ff    	calll  810a <kbd_pending>
    81a1:	66 85 c0             	test   %eax,%eax
    81a4:	74 08                	je     81ae <getchar_timeout+0x36>
    81a6:	66 e8 39 00 00 00    	calll  81e5 <getchar>
    81ac:	eb 33                	jmp    81e1 <getchar_timeout+0x69>
    81ae:	66 e8 17 ff ff ff    	calll  80cb <gettime>
    81b4:	66 0f b6 c0          	movzbl %al,%eax
    81b8:	67 66 89 45 ec       	mov    %eax,-0x14(%ebp)
    81bd:	67 66 8b 45 f0       	mov    -0x10(%ebp),%eax
    81c2:	67 66 3b 45 ec       	cmp    -0x14(%ebp),%eax
    81c7:	74 10                	je     81d9 <getchar_timeout+0x61>
    81c9:	67 66 83 6d f4 01    	subl   $0x1,-0xc(%ebp)
    81cf:	67 66 8b 45 ec       	mov    -0x14(%ebp),%eax
    81d4:	67 66 89 45 f0       	mov    %eax,-0x10(%ebp)
    81d9:	67 66 83 7d f4 00    	cmpl   $0x0,-0xc(%ebp)
    81df:	75 ba                	jne    819b <getchar_timeout+0x23>
    81e1:	66 c9                	leavel 
    81e3:	66 c3                	retl   

000081e5 <getchar>:
    81e5:	66 55                	push   %ebp
    81e7:	66 89 e5             	mov    %esp,%ebp
    81ea:	66 83 ec 68          	sub    $0x68,%esp
    81ee:	67 66 8d 45 cc       	lea    -0x34(%ebp),%eax
    81f3:	66 e8 75 00 00 00    	calll  826e <initregs>
    81f9:	67 66 8d 55 a0       	lea    -0x60(%ebp),%edx
    81fe:	67 66 8d 45 cc       	lea    -0x34(%ebp),%eax
    8203:	66 89 d1             	mov    %edx,%ecx
    8206:	66 89 c2             	mov    %eax,%edx
    8209:	66 b8 16 00 00 00    	mov    $0x16,%eax
    820f:	66 e8 e6 00 00 00    	calll  82fb <intcall>
    8215:	67 66 0f b6 45 bc    	movzbl -0x44(%ebp),%eax
    821b:	66 0f b6 c0          	movzbl %al,%eax
    821f:	66 c9                	leavel 
    8221:	66 c3                	retl   

00008223 <ds>:
    8223:	66 55                	push   %ebp
    8225:	66 89 e5             	mov    %esp,%ebp
    8228:	66 83 ec 10          	sub    $0x10,%esp
    822c:	8c d8                	mov    %ds,%ax
    822e:	67 89 45 fe          	mov    %ax,-0x2(%ebp)
    8232:	67 66 0f b7 45 fe    	movzwl -0x2(%ebp),%eax
    8238:	66 c9                	leavel 
    823a:	66 c3                	retl   

0000823c <fs>:
    823c:	66 55                	push   %ebp
    823e:	66 89 e5             	mov    %esp,%ebp
    8241:	66 83 ec 10          	sub    $0x10,%esp
    8245:	8c e0                	mov    %fs,%ax
    8247:	67 89 45 fe          	mov    %ax,-0x2(%ebp)
    824b:	67 66 0f b7 45 fe    	movzwl -0x2(%ebp),%eax
    8251:	66 c9                	leavel 
    8253:	66 c3                	retl   

00008255 <gs>:
    8255:	66 55                	push   %ebp
    8257:	66 89 e5             	mov    %esp,%ebp
    825a:	66 83 ec 10          	sub    $0x10,%esp
    825e:	8c e8                	mov    %gs,%ax
    8260:	67 89 45 fe          	mov    %ax,-0x2(%ebp)
    8264:	67 66 0f b7 45 fe    	movzwl -0x2(%ebp),%eax
    826a:	66 c9                	leavel 
    826c:	66 c3                	retl   

0000826e <initregs>:
    826e:	66 55                	push   %ebp
    8270:	66 89 e5             	mov    %esp,%ebp
    8273:	66 83 ec 18          	sub    $0x18,%esp
    8277:	67 66 89 45 f4       	mov    %eax,-0xc(%ebp)
    827c:	67 66 8b 45 f4       	mov    -0xc(%ebp),%eax
    8281:	66 b9 2c 00 00 00    	mov    $0x2c,%ecx
    8287:	66 ba 00 00 00 00    	mov    $0x0,%edx
    828d:	66 e8 00 fe ff ff    	calll  8093 <memset>
    8293:	67 66 8b 45 f4       	mov    -0xc(%ebp),%eax
    8298:	67 66 8b 40 28       	mov    0x28(%eax),%eax
    829d:	66 83 c8 01          	or     $0x1,%eax
    82a1:	66 89 c2             	mov    %eax,%edx
    82a4:	67 66 8b 45 f4       	mov    -0xc(%ebp),%eax
    82a9:	67 66 89 50 28       	mov    %edx,0x28(%eax)
    82ae:	66 e8 6f ff ff ff    	calll  8223 <ds>
    82b4:	66 89 c2             	mov    %eax,%edx
    82b7:	67 66 8b 45 f4       	mov    -0xc(%ebp),%eax
    82bc:	67 89 50 26          	mov    %dx,0x26(%eax)
    82c0:	66 e8 5d ff ff ff    	calll  8223 <ds>
    82c6:	66 89 c2             	mov    %eax,%edx
    82c9:	67 66 8b 45 f4       	mov    -0xc(%ebp),%eax
    82ce:	67 89 50 24          	mov    %dx,0x24(%eax)
    82d2:	66 e8 64 ff ff ff    	calll  823c <fs>
    82d8:	66 89 c2             	mov    %eax,%edx
    82db:	67 66 8b 45 f4       	mov    -0xc(%ebp),%eax
    82e0:	67 89 50 22          	mov    %dx,0x22(%eax)
    82e4:	66 e8 6b ff ff ff    	calll  8255 <gs>
    82ea:	66 89 c2             	mov    %eax,%edx
    82ed:	67 66 8b 45 f4       	mov    -0xc(%ebp),%eax
    82f2:	67 89 50 20          	mov    %dx,0x20(%eax)
    82f6:	90                   	nop
    82f7:	66 c9                	leavel 
    82f9:	66 c3                	retl   

000082fb <intcall>:
    82fb:	38 06 26 83          	cmp    %al,-0x7cda
    82ff:	74 05                	je     8306 <intcall+0xb>
    8301:	a2 26 83             	mov    %al,0x8326
    8304:	eb 00                	jmp    8306 <intcall+0xb>
    8306:	66 9c                	pushfl 
    8308:	0f a0                	push   %fs
    830a:	0f a8                	push   %gs
    830c:	66 60                	pushal 
    830e:	83 ec 2c             	sub    $0x2c,%sp
    8311:	89 d6                	mov    %dx,%si
    8313:	89 e7                	mov    %sp,%di
    8315:	b9 0b 00             	mov    $0xb,%cx
    8318:	f3 66 a5             	rep movsl %ds:(%si),%es:(%di)
    831b:	66 61                	popal  
    831d:	0f a9                	pop    %gs
    831f:	0f a1                	pop    %fs
    8321:	07                   	pop    %es
    8322:	1f                   	pop    %ds
    8323:	66 9d                	popfl  
    8325:	cd 00                	int    $0x0
    8327:	66 9c                	pushfl 
    8329:	1e                   	push   %ds
    832a:	06                   	push   %es
    832b:	0f a0                	push   %fs
    832d:	0f a8                	push   %gs
    832f:	66 60                	pushal 
    8331:	fc                   	cld    
    8332:	66 0f b7 e4          	movzwl %sp,%esp
    8336:	8c c8                	mov    %cs,%ax
    8338:	8e d8                	mov    %ax,%ds
    833a:	8e c0                	mov    %ax,%es
    833c:	67 8b 7c 24 44       	mov    0x44(%esp),%di
    8341:	21 ff                	and    %di,%di
    8343:	74 08                	je     834d <intcall+0x52>
    8345:	89 e6                	mov    %sp,%si
    8347:	b9 0b 00             	mov    $0xb,%cx
    834a:	f3 66 a5             	rep movsl %ds:(%si),%es:(%di)
    834d:	83 c4 2c             	add    $0x2c,%sp
    8350:	66 61                	popal  
    8352:	0f a9                	pop    %gs
    8354:	0f a1                	pop    %fs
    8356:	66 9d                	popfl  
    8358:	66 c3                	retl   

0000835a <e820_detect>:
    835a:	66 55                	push   %ebp
    835c:	66 89 e5             	mov    %esp,%ebp
    835f:	66 81 ec 98 00 00 00 	sub    $0x98,%esp
    8366:	67 66 89 85 74 ff ff 	mov    %eax,-0x8c(%ebp)
    836d:	ff 
    836e:	67 66 8b 85 74 ff ff 	mov    -0x8c(%ebp),%eax
    8375:	ff 
    8376:	66 83 c0 1c          	add    $0x1c,%eax
    837a:	67 66 89 45 f0       	mov    %eax,-0x10(%ebp)
    837f:	67 66 c7 45 ec 80 00 	movl   $0x80,-0x14(%ebp)
    8386:	00 00 
    8388:	67 66 c7 45 f4 00 00 	movl   $0x0,-0xc(%ebp)
    838f:	00 00 
    8391:	67 66 8d 45 c0       	lea    -0x40(%ebp),%eax
    8396:	66 e8 d2 fe ff ff    	calll  826e <initregs>
    839c:	67 c7 45 dc 20 e8    	movw   $0xe820,-0x24(%ebp)
    83a2:	67 c7 45 d8 18 00    	movw   $0x18,-0x28(%ebp)
    83a8:	67 66 c7 45 d4 50 41 	movl   $0x534d4150,-0x2c(%ebp)
    83af:	4d 53 
    83b1:	67 66 8d 85 7c ff ff 	lea    -0x84(%ebp),%eax
    83b8:	ff 
    83b9:	67 89 45 c0          	mov    %ax,-0x40(%ebp)
    83bd:	67 66 8d 55 94       	lea    -0x6c(%ebp),%edx
    83c2:	67 66 8d 45 c0       	lea    -0x40(%ebp),%eax
    83c7:	66 89 d1             	mov    %edx,%ecx
    83ca:	66 89 c2             	mov    %eax,%edx
    83cd:	66 b8 15 00 00 00    	mov    $0x15,%eax
    83d3:	66 e8 22 ff ff ff    	calll  82fb <intcall>
    83d9:	67 66 8b 45 bc       	mov    -0x44(%ebp),%eax
    83de:	66 83 e0 01          	and    $0x1,%eax
    83e2:	66 85 c0             	test   %eax,%eax
    83e5:	0f 85 a5 00          	jne    848e <e820_detect+0x134>
    83e9:	67 66 8b 45 b0       	mov    -0x50(%ebp),%eax
    83ee:	66 3d 50 41 4d 53    	cmp    $0x534d4150,%eax
    83f4:	74 0c                	je     8402 <e820_detect+0xa8>
    83f6:	67 66 c7 45 f4 00 00 	movl   $0x0,-0xc(%ebp)
    83fd:	00 00 
    83ff:	e9 8d 00             	jmp    848f <e820_detect+0x135>
    8402:	67 66 8b 45 a4       	mov    -0x5c(%ebp),%eax
    8407:	67 66 89 45 d0       	mov    %eax,-0x30(%ebp)
    840c:	67 66 8b 45 f4       	mov    -0xc(%ebp),%eax
    8411:	67 66 8d 50 01       	lea    0x1(%eax),%edx
    8416:	67 66 89 55 f4       	mov    %edx,-0xc(%ebp)
    841b:	66 89 c2             	mov    %eax,%edx
    841e:	66 89 d0             	mov    %edx,%eax
    8421:	66 01 c0             	add    %eax,%eax
    8424:	66 01 d0             	add    %edx,%eax
    8427:	66 c1 e0 03          	shl    $0x3,%eax
    842b:	66 89 c2             	mov    %eax,%edx
    842e:	67 66 8b 45 f0       	mov    -0x10(%ebp),%eax
    8433:	66 01 d0             	add    %edx,%eax
    8436:	67 66 8b 95 7c ff ff 	mov    -0x84(%ebp),%edx
    843d:	ff 
    843e:	67 66 89 10          	mov    %edx,(%eax)
    8442:	67 66 8b 55 80       	mov    -0x80(%ebp),%edx
    8447:	67 66 89 50 04       	mov    %edx,0x4(%eax)
    844c:	67 66 8b 55 84       	mov    -0x7c(%ebp),%edx
    8451:	67 66 89 50 08       	mov    %edx,0x8(%eax)
    8456:	67 66 8b 55 88       	mov    -0x78(%ebp),%edx
    845b:	67 66 89 50 0c       	mov    %edx,0xc(%eax)
    8460:	67 66 8b 55 8c       	mov    -0x74(%ebp),%edx
    8465:	67 66 89 50 10       	mov    %edx,0x10(%eax)
    846a:	67 66 8b 55 90       	mov    -0x70(%ebp),%edx
    846f:	67 66 89 50 14       	mov    %edx,0x14(%eax)
    8474:	67 66 8b 45 a4       	mov    -0x5c(%ebp),%eax
    8479:	66 85 c0             	test   %eax,%eax
    847c:	74 11                	je     848f <e820_detect+0x135>
    847e:	67 66 8b 45 f4       	mov    -0xc(%ebp),%eax
    8483:	67 66 3b 45 ec       	cmp    -0x14(%ebp),%eax
    8488:	0f 8c 31 ff          	jl     83bd <e820_detect+0x63>
    848c:	eb 01                	jmp    848f <e820_detect+0x135>
    848e:	90                   	nop
    848f:	67 66 8b 45 f4       	mov    -0xc(%ebp),%eax
    8494:	66 89 c2             	mov    %eax,%edx
    8497:	67 66 8b 85 74 ff ff 	mov    -0x8c(%ebp),%eax
    849e:	ff 
    849f:	67 88 90 1c 0c 00 00 	mov    %dl,0xc1c(%eax)
    84a6:	67 66 8b 45 f4       	mov    -0xc(%ebp),%eax
    84ab:	66 c9                	leavel 
    84ad:	66 c3                	retl   

000084af <e820_type>:
    84af:	66 55                	push   %ebp
    84b1:	66 89 e5             	mov    %esp,%ebp
    84b4:	66 83 ec 04          	sub    $0x4,%esp
    84b8:	67 66 89 45 fc       	mov    %eax,-0x4(%ebp)
    84bd:	67 66 8b 45 fc       	mov    -0x4(%ebp),%eax
    84c2:	66 83 f8 02          	cmp    $0x2,%eax
    84c6:	74 24                	je     84ec <e820_type+0x3d>
    84c8:	66 83 f8 02          	cmp    $0x2,%eax
    84cc:	77 08                	ja     84d6 <e820_type+0x27>
    84ce:	66 83 f8 01          	cmp    $0x1,%eax
    84d2:	74 10                	je     84e4 <e820_type+0x35>
    84d4:	eb 2e                	jmp    8504 <e820_type+0x55>
    84d6:	66 83 f8 03          	cmp    $0x3,%eax
    84da:	74 18                	je     84f4 <e820_type+0x45>
    84dc:	66 83 f8 04          	cmp    $0x4,%eax
    84e0:	74 1a                	je     84fc <e820_type+0x4d>
    84e2:	eb 20                	jmp    8504 <e820_type+0x55>
    84e4:	66 b8 d6 b4 00 00    	mov    $0xb4d6,%eax
    84ea:	eb 1e                	jmp    850a <e820_type+0x5b>
    84ec:	66 b8 da b4 00 00    	mov    $0xb4da,%eax
    84f2:	eb 16                	jmp    850a <e820_type+0x5b>
    84f4:	66 b8 e3 b4 00 00    	mov    $0xb4e3,%eax
    84fa:	eb 0e                	jmp    850a <e820_type+0x5b>
    84fc:	66 b8 fb b4 00 00    	mov    $0xb4fb,%eax
    8502:	eb 06                	jmp    850a <e820_type+0x5b>
    8504:	66 b8 04 b5 00 00    	mov    $0xb504,%eax
    850a:	66 c9                	leavel 
    850c:	66 c3                	retl   

0000850e <e820_show>:
    850e:	66 55                	push   %ebp
    8510:	66 89 e5             	mov    %esp,%ebp
    8513:	66 53                	push   %ebx
    8515:	66 83 ec 24          	sub    $0x24,%esp
    8519:	67 66 89 45 e4       	mov    %eax,-0x1c(%ebp)
    851e:	67 66 8b 45 e4       	mov    -0x1c(%ebp),%eax
    8523:	66 83 c0 1c          	add    $0x1c,%eax
    8527:	67 66 89 45 f0       	mov    %eax,-0x10(%ebp)
    852c:	67 66 8b 45 e4       	mov    -0x1c(%ebp),%eax
    8531:	67 66 0f b6 80 1c 0c 	movzbl 0xc1c(%eax),%eax
    8538:	00 00 
    853a:	66 0f b6 c0          	movzbl %al,%eax
    853e:	66 83 ec 08          	sub    $0x8,%esp
    8542:	66 50                	push   %eax
    8544:	66 68 0c b5 00 00    	pushl  $0xb50c
    854a:	66 e8 1b 2d 00 00    	calll  b26b <printf>
    8550:	66 83 c4 10          	add    $0x10,%esp
    8554:	67 66 c7 45 f4 00 00 	movl   $0x0,-0xc(%ebp)
    855b:	00 00 
    855d:	e9 b3 00             	jmp    8613 <e820_show+0x105>
    8560:	67 66 8b 55 f4       	mov    -0xc(%ebp),%edx
    8565:	66 89 d0             	mov    %edx,%eax
    8568:	66 01 c0             	add    %eax,%eax
    856b:	66 01 d0             	add    %edx,%eax
    856e:	66 c1 e0 03          	shl    $0x3,%eax
    8572:	66 89 c2             	mov    %eax,%edx
    8575:	67 66 8b 45 f0       	mov    -0x10(%ebp),%eax
    857a:	66 01 d0             	add    %edx,%eax
    857d:	67 66 8b 40 10       	mov    0x10(%eax),%eax
    8582:	66 e8 27 ff ff ff    	calll  84af <e820_type>
    8588:	66 89 c3             	mov    %eax,%ebx
    858b:	67 66 8b 55 f4       	mov    -0xc(%ebp),%edx
    8590:	66 89 d0             	mov    %edx,%eax
    8593:	66 01 c0             	add    %eax,%eax
    8596:	66 01 d0             	add    %edx,%eax
    8599:	66 c1 e0 03          	shl    $0x3,%eax
    859d:	66 89 c2             	mov    %eax,%edx
    85a0:	67 66 8b 45 f0       	mov    -0x10(%ebp),%eax
    85a5:	66 01 d0             	add    %edx,%eax
    85a8:	67 66 8b 08          	mov    (%eax),%ecx
    85ac:	67 66 8b 55 f4       	mov    -0xc(%ebp),%edx
    85b1:	66 89 d0             	mov    %edx,%eax
    85b4:	66 01 c0             	add    %eax,%eax
    85b7:	66 01 d0             	add    %edx,%eax
    85ba:	66 c1 e0 03          	shl    $0x3,%eax
    85be:	66 89 c2             	mov    %eax,%edx
    85c1:	67 66 8b 45 f0       	mov    -0x10(%ebp),%eax
    85c6:	66 01 d0             	add    %edx,%eax
    85c9:	67 66 8b 40 08       	mov    0x8(%eax),%eax
    85ce:	66 01 c8             	add    %ecx,%eax
    85d1:	67 66 8d 48 ff       	lea    -0x1(%eax),%ecx
    85d6:	67 66 8b 55 f4       	mov    -0xc(%ebp),%edx
    85db:	66 89 d0             	mov    %edx,%eax
    85de:	66 01 c0             	add    %eax,%eax
    85e1:	66 01 d0             	add    %edx,%eax
    85e4:	66 c1 e0 03          	shl    $0x3,%eax
    85e8:	66 89 c2             	mov    %eax,%edx
    85eb:	67 66 8b 45 f0       	mov    -0x10(%ebp),%eax
    85f0:	66 01 d0             	add    %edx,%eax
    85f3:	67 66 8b 00          	mov    (%eax),%eax
    85f7:	66 53                	push   %ebx
    85f9:	66 51                	push   %ecx
    85fb:	66 50                	push   %eax
    85fd:	66 68 25 b5 00 00    	pushl  $0xb525
    8603:	66 e8 62 2c 00 00    	calll  b26b <printf>
    8609:	66 83 c4 10          	add    $0x10,%esp
    860d:	67 66 83 45 f4 01    	addl   $0x1,-0xc(%ebp)
    8613:	67 66 8b 45 e4       	mov    -0x1c(%ebp),%eax
    8618:	67 66 0f b6 80 1c 0c 	movzbl 0xc1c(%eax),%eax
    861f:	00 00 
    8621:	66 0f b6 c0          	movzbl %al,%eax
    8625:	67 66 3b 45 f4       	cmp    -0xc(%ebp),%eax
    862a:	0f 8f 32 ff          	jg     8560 <e820_show+0x52>
    862e:	90                   	nop
    862f:	67 66 8b 5d fc       	mov    -0x4(%ebp),%ebx
    8634:	66 c9                	leavel 
    8636:	66 c3                	retl   

00008638 <__get_heap>:
    8638:	66 55                	push   %ebp
    863a:	66 89 e5             	mov    %esp,%ebp
    863d:	66 83 ec 1c          	sub    $0x1c,%esp
    8641:	67 66 89 45 ec       	mov    %eax,-0x14(%ebp)
    8646:	67 66 89 55 e8       	mov    %edx,-0x18(%ebp)
    864b:	67 66 89 4d e4       	mov    %ecx,-0x1c(%ebp)
    8650:	66 a1 60 c6          	mov    0xc660,%eax
    8654:	66 89 c2             	mov    %eax,%edx
    8657:	67 66 8b 45 e8       	mov    -0x18(%ebp),%eax
    865c:	66 01 d0             	add    %edx,%eax
    865f:	67 66 8d 50 ff       	lea    -0x1(%eax),%edx
    8664:	67 66 8b 45 e8       	mov    -0x18(%ebp),%eax
    8669:	66 f7 d8             	neg    %eax
    866c:	66 21 d0             	and    %edx,%eax
    866f:	66 a3 60 c6          	mov    %eax,0xc660
    8673:	66 a1 60 c6          	mov    0xc660,%eax
    8677:	67 66 89 45 fc       	mov    %eax,-0x4(%ebp)
    867c:	66 8b 16 60 c6       	mov    -0x39a0,%edx
    8681:	67 66 8b 45 ec       	mov    -0x14(%ebp),%eax
    8686:	67 66 0f af 45 e4    	imul   -0x1c(%ebp),%eax
    868c:	66 01 d0             	add    %edx,%eax
    868f:	66 a3 60 c6          	mov    %eax,0xc660
    8693:	67 66 8b 45 fc       	mov    -0x4(%ebp),%eax
    8698:	66 c9                	leavel 
    869a:	66 c3                	retl   

0000869c <heap_free>:
    869c:	66 55                	push   %ebp
    869e:	66 89 e5             	mov    %esp,%ebp
    86a1:	66 83 ec 04          	sub    $0x4,%esp
    86a5:	67 66 89 45 fc       	mov    %eax,-0x4(%ebp)
    86aa:	66 a1 64 c6          	mov    0xc664,%eax
    86ae:	66 89 c2             	mov    %eax,%edx
    86b1:	66 a1 60 c6          	mov    0xc660,%eax
    86b5:	66 29 c2             	sub    %eax,%edx
    86b8:	67 66 8b 45 fc       	mov    -0x4(%ebp),%eax
    86bd:	66 39 c2             	cmp    %eax,%edx
    86c0:	0f 9d c0             	setge  %al
    86c3:	66 0f b6 c0          	movzbl %al,%eax
    86c7:	66 c9                	leavel 
    86c9:	66 c3                	retl   

000086cb <rdfs16>:
    86cb:	66 55                	push   %ebp
    86cd:	66 89 e5             	mov    %esp,%ebp
    86d0:	66 83 ec 14          	sub    $0x14,%esp
    86d4:	67 66 89 45 ec       	mov    %eax,-0x14(%ebp)
    86d9:	67 66 8b 45 ec       	mov    -0x14(%ebp),%eax
    86de:	64 67 8b 00          	mov    %fs:(%eax),%ax
    86e2:	67 89 45 fe          	mov    %ax,-0x2(%ebp)
    86e6:	67 66 0f b7 45 fe    	movzwl -0x2(%ebp),%eax
    86ec:	66 c9                	leavel 
    86ee:	66 c3                	retl   

000086f0 <rdfs8>:
    86f0:	66 55                	push   %ebp
    86f2:	66 89 e5             	mov    %esp,%ebp
    86f5:	66 83 ec 14          	sub    $0x14,%esp
    86f9:	67 66 89 45 ec       	mov    %eax,-0x14(%ebp)
    86fe:	67 66 8b 45 ec       	mov    -0x14(%ebp),%eax
    8703:	64 67 8a 00          	mov    %fs:(%eax),%al
    8707:	67 88 45 ff          	mov    %al,-0x1(%ebp)
    870b:	67 66 0f b6 45 ff    	movzbl -0x1(%ebp),%eax
    8711:	66 c9                	leavel 
    8713:	66 c3                	retl   

00008715 <outb>:
    8715:	66 55                	push   %ebp
    8717:	66 89 e5             	mov    %esp,%ebp
    871a:	66 83 ec 08          	sub    $0x8,%esp
    871e:	66 89 c1             	mov    %eax,%ecx
    8721:	66 89 d0             	mov    %edx,%eax
    8724:	67 88 4d fc          	mov    %cl,-0x4(%ebp)
    8728:	67 89 45 f8          	mov    %ax,-0x8(%ebp)
    872c:	67 66 0f b6 45 fc    	movzbl -0x4(%ebp),%eax
    8732:	67 66 0f b7 55 f8    	movzwl -0x8(%ebp),%edx
    8738:	ee                   	out    %al,(%dx)
    8739:	90                   	nop
    873a:	66 c9                	leavel 
    873c:	66 c3                	retl   

0000873e <inb>:
    873e:	66 55                	push   %ebp
    8740:	66 89 e5             	mov    %esp,%ebp
    8743:	66 83 ec 14          	sub    $0x14,%esp
    8747:	67 89 45 ec          	mov    %ax,-0x14(%ebp)
    874b:	67 66 0f b7 45 ec    	movzwl -0x14(%ebp),%eax
    8751:	66 89 c2             	mov    %eax,%edx
    8754:	ec                   	in     (%dx),%al
    8755:	67 88 45 ff          	mov    %al,-0x1(%ebp)
    8759:	67 66 0f b6 45 ff    	movzbl -0x1(%ebp),%eax
    875f:	66 c9                	leavel 
    8761:	66 c3                	retl   

00008763 <outw>:
    8763:	66 55                	push   %ebp
    8765:	66 89 e5             	mov    %esp,%ebp
    8768:	66 83 ec 08          	sub    $0x8,%esp
    876c:	66 89 c1             	mov    %eax,%ecx
    876f:	66 89 d0             	mov    %edx,%eax
    8772:	67 89 4d fc          	mov    %cx,-0x4(%ebp)
    8776:	67 89 45 f8          	mov    %ax,-0x8(%ebp)
    877a:	67 66 0f b7 45 fc    	movzwl -0x4(%ebp),%eax
    8780:	67 66 0f b7 55 f8    	movzwl -0x8(%ebp),%edx
    8786:	ef                   	out    %ax,(%dx)
    8787:	90                   	nop
    8788:	66 c9                	leavel 
    878a:	66 c3                	retl   

0000878c <set_fs>:
    878c:	66 55                	push   %ebp
    878e:	66 89 e5             	mov    %esp,%ebp
    8791:	66 83 ec 04          	sub    $0x4,%esp
    8795:	67 89 45 fc          	mov    %ax,-0x4(%ebp)
    8799:	67 8e 65 fc          	mov    -0x4(%ebp),%fs
    879d:	90                   	nop
    879e:	66 c9                	leavel 
    87a0:	66 c3                	retl   

000087a2 <in_idx>:
    87a2:	66 55                	push   %ebp
    87a4:	66 89 e5             	mov    %esp,%ebp
    87a7:	66 83 ec 08          	sub    $0x8,%esp
    87ab:	66 89 c1             	mov    %eax,%ecx
    87ae:	66 89 d0             	mov    %edx,%eax
    87b1:	67 89 4d fc          	mov    %cx,-0x4(%ebp)
    87b5:	67 88 45 f8          	mov    %al,-0x8(%ebp)
    87b9:	67 66 0f b7 55 fc    	movzwl -0x4(%ebp),%edx
    87bf:	67 66 0f b6 45 f8    	movzbl -0x8(%ebp),%eax
    87c5:	66 e8 4a ff ff ff    	calll  8715 <outb>
    87cb:	67 66 0f b7 45 fc    	movzwl -0x4(%ebp),%eax
    87d1:	66 83 c0 01          	add    $0x1,%eax
    87d5:	66 0f b7 c0          	movzwl %ax,%eax
    87d9:	66 e8 5f ff ff ff    	calll  873e <inb>
    87df:	66 c9                	leavel 
    87e1:	66 c3                	retl   

000087e3 <out_idx>:
    87e3:	66 55                	push   %ebp
    87e5:	66 89 e5             	mov    %esp,%ebp
    87e8:	66 53                	push   %ebx
    87ea:	66 83 ec 0c          	sub    $0xc,%esp
    87ee:	66 89 c3             	mov    %eax,%ebx
    87f1:	66 89 c8             	mov    %ecx,%eax
    87f4:	67 88 5d f8          	mov    %bl,-0x8(%ebp)
    87f8:	67 89 55 f4          	mov    %dx,-0xc(%ebp)
    87fc:	67 88 45 f0          	mov    %al,-0x10(%ebp)
    8800:	67 66 0f b7 55 f4    	movzwl -0xc(%ebp),%edx
    8806:	67 66 0f b6 45 f0    	movzbl -0x10(%ebp),%eax
    880c:	67 66 0f b6 4d f8    	movzbl -0x8(%ebp),%ecx
    8812:	66 c1 e1 08          	shl    $0x8,%ecx
    8816:	66 01 c8             	add    %ecx,%eax
    8819:	66 0f b7 c0          	movzwl %ax,%eax
    881d:	66 e8 40 ff ff ff    	calll  8763 <outw>
    8823:	90                   	nop
    8824:	66 83 c4 0c          	add    $0xc,%esp
    8828:	66 5b                	pop    %ebx
    882a:	66 5d                	pop    %ebp
    882c:	66 c3                	retl   

0000882e <store_cursor_position>:
    882e:	66 55                	push   %ebp
    8830:	66 89 e5             	mov    %esp,%ebp
    8833:	66 83 ec 68          	sub    $0x68,%esp
    8837:	67 66 8d 45 cc       	lea    -0x34(%ebp),%eax
    883c:	66 e8 2c fa ff ff    	calll  826e <initregs>
    8842:	67 c6 45 e9 03       	movb   $0x3,-0x17(%ebp)
    8847:	67 66 8d 55 a0       	lea    -0x60(%ebp),%edx
    884c:	67 66 8d 45 cc       	lea    -0x34(%ebp),%eax
    8851:	66 89 d1             	mov    %edx,%ecx
    8854:	66 89 c2             	mov    %eax,%edx
    8857:	66 b8 10 00 00 00    	mov    $0x10,%eax
    885d:	66 e8 98 fa ff ff    	calll  82fb <intcall>
    8863:	67 66 0f b6 45 b4    	movzbl -0x4c(%ebp),%eax
    8869:	a2 b7 d5             	mov    %al,0xd5b7
    886c:	67 66 0f b6 45 b5    	movzbl -0x4b(%ebp),%eax
    8872:	a2 b8 d5             	mov    %al,0xd5b8
    8875:	67 66 0f b6 45 b9    	movzbl -0x47(%ebp),%eax
    887b:	66 0f b6 c0          	movzbl %al,%eax
    887f:	66 83 e0 20          	and    $0x20,%eax
    8883:	66 85 c0             	test   %eax,%eax
    8886:	74 0d                	je     8895 <store_cursor_position+0x67>
    8888:	66 0f b6 06 bf d5    	movzbl -0x2a41,%eax
    888e:	66 83 c8 01          	or     $0x1,%eax
    8892:	a2 bf d5             	mov    %al,0xd5bf
    8895:	67 66 0f b6 45 b9    	movzbl -0x47(%ebp),%eax
    889b:	66 0f b6 c0          	movzbl %al,%eax
    889f:	66 83 e0 1f          	and    $0x1f,%eax
    88a3:	66 89 c2             	mov    %eax,%edx
    88a6:	67 66 0f b6 45 b8    	movzbl -0x48(%ebp),%eax
    88ac:	66 0f b6 c0          	movzbl %al,%eax
    88b0:	66 83 e0 1f          	and    $0x1f,%eax
    88b4:	66 39 c2             	cmp    %eax,%edx
    88b7:	7e 0d                	jle    88c6 <store_cursor_position+0x98>
    88b9:	66 0f b6 06 bf d5    	movzbl -0x2a41,%eax
    88bf:	66 83 c8 01          	or     $0x1,%eax
    88c3:	a2 bf d5             	mov    %al,0xd5bf
    88c6:	90                   	nop
    88c7:	66 c9                	leavel 
    88c9:	66 c3                	retl   

000088cb <store_video_mode>:
    88cb:	66 55                	push   %ebp
    88cd:	66 89 e5             	mov    %esp,%ebp
    88d0:	66 83 ec 68          	sub    $0x68,%esp
    88d4:	67 66 8d 45 cc       	lea    -0x34(%ebp),%eax
    88d9:	66 e8 8f f9 ff ff    	calll  826e <initregs>
    88df:	67 c6 45 e9 0f       	movb   $0xf,-0x17(%ebp)
    88e4:	67 66 8d 55 a0       	lea    -0x60(%ebp),%edx
    88e9:	67 66 8d 45 cc       	lea    -0x34(%ebp),%eax
    88ee:	66 89 d1             	mov    %edx,%ecx
    88f1:	66 89 c2             	mov    %eax,%edx
    88f4:	66 b8 10 00 00 00    	mov    $0x10,%eax
    88fa:	66 e8 fb f9 ff ff    	calll  82fb <intcall>
    8900:	67 66 0f b6 45 bc    	movzbl -0x44(%ebp),%eax
    8906:	66 83 e0 7f          	and    $0x7f,%eax
    890a:	a2 bd d5             	mov    %al,0xd5bd
    890d:	67 66 0f b6 45 bc    	movzbl -0x44(%ebp),%eax
    8913:	66 0f b6 c0          	movzbl %al,%eax
    8917:	66 83 e0 7f          	and    $0x7f,%eax
    891b:	a3 bb d5             	mov    %ax,0xd5bb
    891e:	90                   	nop
    891f:	66 c9                	leavel 
    8921:	66 c3                	retl   

00008923 <store_mode_params>:
    8923:	66 55                	push   %ebp
    8925:	66 89 e5             	mov    %esp,%ebp
    8928:	66 83 ec 18          	sub    $0x18,%esp
    892c:	66 e8 fc fe ff ff    	calll  882e <store_cursor_position>
    8932:	66 e8 93 ff ff ff    	calll  88cb <store_video_mode>
    8938:	66 0f b6 06 bd d5    	movzbl -0x2a43,%eax
    893e:	3c 07                	cmp    $0x7,%al
    8940:	75 08                	jne    894a <store_mode_params+0x27>
    8942:	c7 06 fc d5 00 b0    	movw   $0xb000,-0x2a04
    8948:	eb 06                	jmp    8950 <store_mode_params+0x2d>
    894a:	c7 06 fc d5 00 b8    	movw   $0xb800,-0x2a04
    8950:	66 b8 00 00 00 00    	mov    $0x0,%eax
    8956:	66 e8 30 fe ff ff    	calll  878c <set_fs>
    895c:	66 b8 85 04 00 00    	mov    $0x485,%eax
    8962:	66 e8 63 fd ff ff    	calll  86cb <rdfs16>
    8968:	67 89 45 ee          	mov    %ax,-0x12(%ebp)
    896c:	67 66 0f b7 45 ee    	movzwl -0x12(%ebp),%eax
    8972:	a3 c7 d5             	mov    %ax,0xd5c7
    8975:	66 b8 4a 04 00 00    	mov    $0x44a,%eax
    897b:	66 e8 4a fd ff ff    	calll  86cb <rdfs16>
    8981:	66 0f b7 c0          	movzwl %ax,%eax
    8985:	67 66 89 45 f4       	mov    %eax,-0xc(%ebp)
    898a:	66 a1 00 d6          	mov    0xd600,%eax
    898e:	66 85 c0             	test   %eax,%eax
    8991:	74 16                	je     89a9 <store_mode_params+0x86>
    8993:	66 b8 84 04 00 00    	mov    $0x484,%eax
    8999:	66 e8 51 fd ff ff    	calll  86f0 <rdfs8>
    899f:	66 0f b6 c0          	movzbl %al,%eax
    89a3:	66 83 c0 01          	add    $0x1,%eax
    89a7:	eb 06                	jmp    89af <store_mode_params+0x8c>
    89a9:	66 b8 19 00 00 00    	mov    $0x19,%eax
    89af:	67 66 89 45 f0       	mov    %eax,-0x10(%ebp)
    89b4:	66 a1 08 d6          	mov    0xd608,%eax
    89b8:	66 85 c0             	test   %eax,%eax
    89bb:	74 09                	je     89c6 <store_mode_params+0xa3>
    89bd:	66 a1 08 d6          	mov    0xd608,%eax
    89c1:	67 66 89 45 f4       	mov    %eax,-0xc(%ebp)
    89c6:	66 a1 04 d6          	mov    0xd604,%eax
    89ca:	66 85 c0             	test   %eax,%eax
    89cd:	74 09                	je     89d8 <store_mode_params+0xb5>
    89cf:	66 a1 04 d6          	mov    0xd604,%eax
    89d3:	67 66 89 45 f0       	mov    %eax,-0x10(%ebp)
    89d8:	67 66 8b 45 f4       	mov    -0xc(%ebp),%eax
    89dd:	a2 be d5             	mov    %al,0xd5be
    89e0:	67 66 8b 45 f0       	mov    -0x10(%ebp),%eax
    89e5:	a2 c5 d5             	mov    %al,0xd5c5
    89e8:	90                   	nop
    89e9:	66 c9                	leavel 
    89eb:	66 c3                	retl   

000089ed <get_entry>:
    89ed:	66 55                	push   %ebp
    89ef:	66 89 e5             	mov    %esp,%ebp
    89f2:	66 83 ec 28          	sub    $0x28,%esp
    89f6:	67 66 c7 45 f0 00 00 	movl   $0x0,-0x10(%ebp)
    89fd:	00 00 
    89ff:	67 66 c7 45 ec 00 00 	movl   $0x0,-0x14(%ebp)
    8a06:	00 00 
    8a08:	66 e8 d7 f7 ff ff    	calll  81e5 <getchar>
    8a0e:	67 66 89 45 e8       	mov    %eax,-0x18(%ebp)
    8a13:	67 66 83 7d e8 08    	cmpl   $0x8,-0x18(%ebp)
    8a19:	75 1c                	jne    8a37 <get_entry+0x4a>
    8a1b:	67 66 83 7d f0 00    	cmpl   $0x0,-0x10(%ebp)
    8a21:	7e 73                	jle    8a96 <get_entry+0xa9>
    8a23:	66 b8 3c b5 00 00    	mov    $0xb53c,%eax
    8a29:	66 e8 cc f3 ff ff    	calll  7dfb <puts>
    8a2f:	67 66 83 6d f0 01    	subl   $0x1,-0x10(%ebp)
    8a35:	eb 5f                	jmp    8a96 <get_entry+0xa9>
    8a37:	67 66 83 7d e8 2f    	cmpl   $0x2f,-0x18(%ebp)
    8a3d:	7e 08                	jle    8a47 <get_entry+0x5a>
    8a3f:	67 66 83 7d e8 39    	cmpl   $0x39,-0x18(%ebp)
    8a45:	7e 20                	jle    8a67 <get_entry+0x7a>
    8a47:	67 66 83 7d e8 40    	cmpl   $0x40,-0x18(%ebp)
    8a4d:	7e 08                	jle    8a57 <get_entry+0x6a>
    8a4f:	67 66 83 7d e8 5a    	cmpl   $0x5a,-0x18(%ebp)
    8a55:	7e 10                	jle    8a67 <get_entry+0x7a>
    8a57:	67 66 83 7d e8 60    	cmpl   $0x60,-0x18(%ebp)
    8a5d:	7e 37                	jle    8a96 <get_entry+0xa9>
    8a5f:	67 66 83 7d e8 7a    	cmpl   $0x7a,-0x18(%ebp)
    8a65:	7f 2f                	jg     8a96 <get_entry+0xa9>
    8a67:	67 66 8b 45 f0       	mov    -0x10(%ebp),%eax
    8a6c:	66 83 f8 03          	cmp    $0x3,%eax
    8a70:	77 24                	ja     8a96 <get_entry+0xa9>
    8a72:	67 66 8b 45 f0       	mov    -0x10(%ebp),%eax
    8a77:	67 66 8d 50 01       	lea    0x1(%eax),%edx
    8a7c:	67 66 89 55 f0       	mov    %edx,-0x10(%ebp)
    8a81:	67 66 8b 55 e8       	mov    -0x18(%ebp),%edx
    8a86:	67 88 54 05 e4       	mov    %dl,-0x1c(%ebp,%eax,1)
    8a8b:	67 66 8b 45 e8       	mov    -0x18(%ebp),%eax
    8a90:	66 e8 ff f2 ff ff    	calll  7d95 <my_putchar>
    8a96:	67 66 83 7d e8 0d    	cmpl   $0xd,-0x18(%ebp)
    8a9c:	0f 85 68 ff          	jne    8a08 <get_entry+0x1b>
    8aa0:	66 b8 0a 00 00 00    	mov    $0xa,%eax
    8aa6:	66 e8 e9 f2 ff ff    	calll  7d95 <my_putchar>
    8aac:	67 66 83 7d f0 00    	cmpl   $0x0,-0x10(%ebp)
    8ab2:	75 08                	jne    8abc <get_entry+0xcf>
    8ab4:	66 b8 04 0f 00 00    	mov    $0xf04,%eax
    8aba:	eb 71                	jmp    8b2d <get_entry+0x140>
    8abc:	67 66 c7 45 ec 00 00 	movl   $0x0,-0x14(%ebp)
    8ac3:	00 00 
    8ac5:	67 66 c7 45 f4 00 00 	movl   $0x0,-0xc(%ebp)
    8acc:	00 00 
    8ace:	eb 4c                	jmp    8b1c <get_entry+0x12f>
    8ad0:	67 66 c1 65 ec 04    	shll   $0x4,-0x14(%ebp)
    8ad6:	67 66 8d 55 e4       	lea    -0x1c(%ebp),%edx
    8adb:	67 66 8b 45 f4       	mov    -0xc(%ebp),%eax
    8ae0:	66 01 d0             	add    %edx,%eax
    8ae3:	67 66 0f b6 00       	movzbl (%eax),%eax
    8ae8:	66 83 c8 20          	or     $0x20,%eax
    8aec:	66 0f be c0          	movsbl %al,%eax
    8af0:	67 66 89 45 e8       	mov    %eax,-0x18(%ebp)
    8af5:	67 66 83 7d e8 39    	cmpl   $0x39,-0x18(%ebp)
    8afb:	7e 0b                	jle    8b08 <get_entry+0x11b>
    8afd:	67 66 8b 45 e8       	mov    -0x18(%ebp),%eax
    8b02:	66 83 e8 57          	sub    $0x57,%eax
    8b06:	eb 09                	jmp    8b11 <get_entry+0x124>
    8b08:	67 66 8b 45 e8       	mov    -0x18(%ebp),%eax
    8b0d:	66 83 e8 30          	sub    $0x30,%eax
    8b11:	67 66 01 45 ec       	add    %eax,-0x14(%ebp)
    8b16:	67 66 83 45 f4 01    	addl   $0x1,-0xc(%ebp)
    8b1c:	67 66 8b 45 f4       	mov    -0xc(%ebp),%eax
    8b21:	67 66 3b 45 f0       	cmp    -0x10(%ebp),%eax
    8b26:	7c a8                	jl     8ad0 <get_entry+0xe3>
    8b28:	67 66 8b 45 ec       	mov    -0x14(%ebp),%eax
    8b2d:	66 c9                	leavel 
    8b2f:	66 c3                	retl   

00008b31 <probe_cards>:
    8b31:	66 55                	push   %ebp
    8b33:	66 89 e5             	mov    %esp,%ebp
    8b36:	66 83 ec 28          	sub    $0x28,%esp
    8b3a:	67 66 89 45 e4       	mov    %eax,-0x1c(%ebp)
    8b3f:	67 66 8b 45 e4       	mov    -0x1c(%ebp),%eax
    8b44:	66 05 14 c7 00 00    	add    $0xc714,%eax
    8b4a:	67 66 0f b6 00       	movzbl (%eax),%eax
    8b4f:	84 c0                	test   %al,%al
    8b51:	75 77                	jne    8bca <probe_cards+0x99>
    8b53:	67 66 8b 45 e4       	mov    -0x1c(%ebp),%eax
    8b58:	66 05 14 c7 00 00    	add    $0xc714,%eax
    8b5e:	67 c6 00 01          	movb   $0x1,(%eax)
    8b62:	67 66 c7 45 f4 f0 c5 	movl   $0xc5f0,-0xc(%ebp)
    8b69:	00 00 
    8b6b:	eb 50                	jmp    8bbd <probe_cards+0x8c>
    8b6d:	67 66 8b 45 f4       	mov    -0xc(%ebp),%eax
    8b72:	67 66 8b 40 14       	mov    0x14(%eax),%eax
    8b77:	67 66 3b 45 e4       	cmp    -0x1c(%ebp),%eax
    8b7c:	75 39                	jne    8bb7 <probe_cards+0x86>
    8b7e:	67 66 8b 45 f4       	mov    -0xc(%ebp),%eax
    8b83:	67 66 8b 40 08       	mov    0x8(%eax),%eax
    8b88:	66 85 c0             	test   %eax,%eax
    8b8b:	74 1c                	je     8ba9 <probe_cards+0x78>
    8b8d:	67 66 8b 45 f4       	mov    -0xc(%ebp),%eax
    8b92:	67 66 8b 40 08       	mov    0x8(%eax),%eax
    8b97:	66 ff d0             	calll  *%eax
    8b9a:	66 89 c2             	mov    %eax,%edx
    8b9d:	67 66 8b 45 f4       	mov    -0xc(%ebp),%eax
    8ba2:	67 66 89 50 10       	mov    %edx,0x10(%eax)
    8ba7:	eb 0e                	jmp    8bb7 <probe_cards+0x86>
    8ba9:	67 66 8b 45 f4       	mov    -0xc(%ebp),%eax
    8bae:	67 66 c7 40 10 00 00 	movl   $0x0,0x10(%eax)
    8bb5:	00 00 
    8bb7:	67 66 83 45 f4 1c    	addl   $0x1c,-0xc(%ebp)
    8bbd:	67 66 81 7d f4 44 c6 	cmpl   $0xc644,-0xc(%ebp)
    8bc4:	00 00 
    8bc6:	72 a5                	jb     8b6d <probe_cards+0x3c>
    8bc8:	eb 01                	jmp    8bcb <probe_cards+0x9a>
    8bca:	90                   	nop
    8bcb:	66 c9                	leavel 
    8bcd:	66 c3                	retl   

00008bcf <display_menu>:
    8bcf:	66 55                	push   %ebp
    8bd1:	66 89 e5             	mov    %esp,%ebp
    8bd4:	66 53                	push   %ebx
    8bd6:	66 83 ec 54          	sub    $0x54,%esp
    8bda:	67 66 c7 45 e4 00 00 	movl   $0x0,-0x1c(%ebp)
    8be1:	00 00 
    8be3:	67 66 c7 45 f4 f0 c5 	movl   $0xc5f0,-0xc(%ebp)
    8bea:	00 00 
    8bec:	eb 15                	jmp    8c03 <display_menu+0x34>
    8bee:	67 66 8b 45 f4       	mov    -0xc(%ebp),%eax
    8bf3:	67 66 8b 40 10       	mov    0x10(%eax),%eax
    8bf8:	67 66 01 45 e4       	add    %eax,-0x1c(%ebp)
    8bfd:	67 66 83 45 f4 1c    	addl   $0x1c,-0xc(%ebp)
    8c03:	67 66 81 7d f4 44 c6 	cmpl   $0xc644,-0xc(%ebp)
    8c0a:	00 00 
    8c0c:	72 e0                	jb     8bee <display_menu+0x1f>
    8c0e:	67 66 c7 45 e0 01 00 	movl   $0x1,-0x20(%ebp)
    8c15:	00 00 
    8c17:	67 66 83 7d e4 13    	cmpl   $0x13,-0x1c(%ebp)
    8c1d:	7e 09                	jle    8c28 <display_menu+0x59>
    8c1f:	67 66 c7 45 e0 03 00 	movl   $0x3,-0x20(%ebp)
    8c26:	00 00 
    8c28:	67 66 c7 45 dc 00 00 	movl   $0x0,-0x24(%ebp)
    8c2f:	00 00 
    8c31:	eb 12                	jmp    8c45 <display_menu+0x76>
    8c33:	66 b8 40 b5 00 00    	mov    $0xb540,%eax
    8c39:	66 e8 bc f1 ff ff    	calll  7dfb <puts>
    8c3f:	67 66 83 45 dc 01    	addl   $0x1,-0x24(%ebp)
    8c45:	67 66 8b 45 dc       	mov    -0x24(%ebp),%eax
    8c4a:	67 66 3b 45 e0       	cmp    -0x20(%ebp),%eax
    8c4f:	7c e2                	jl     8c33 <display_menu+0x64>
    8c51:	66 b8 0a 00 00 00    	mov    $0xa,%eax
    8c57:	66 e8 38 f1 ff ff    	calll  7d95 <my_putchar>
    8c5d:	67 66 c7 45 dc 00 00 	movl   $0x0,-0x24(%ebp)
    8c64:	00 00 
    8c66:	67 c6 45 ef 30       	movb   $0x30,-0x11(%ebp)
    8c6b:	67 66 c7 45 f4 f0 c5 	movl   $0xc5f0,-0xc(%ebp)
    8c72:	00 00 
    8c74:	e9 d1 01             	jmp    8e48 <display_menu+0x279>
    8c77:	67 66 8b 45 f4       	mov    -0xc(%ebp),%eax
    8c7c:	67 66 8b 40 0c       	mov    0xc(%eax),%eax
    8c81:	67 66 89 45 f0       	mov    %eax,-0x10(%ebp)
    8c86:	67 66 c7 45 e8 00 00 	movl   $0x0,-0x18(%ebp)
    8c8d:	00 00 
    8c8f:	e9 9d 01             	jmp    8e2f <display_menu+0x260>
    8c92:	67 66 8b 45 f0       	mov    -0x10(%ebp),%eax
    8c97:	67 66 0f b7 40 02    	movzwl 0x2(%eax),%eax
    8c9d:	85 c0                	test   %ax,%ax
    8c9f:	74 17                	je     8cb8 <display_menu+0xe9>
    8ca1:	67 66 8b 45 f0       	mov    -0x10(%ebp),%eax
    8ca6:	67 66 0f b7 40 04    	movzwl 0x4(%eax),%eax
    8cac:	85 c0                	test   %ax,%ax
    8cae:	74 08                	je     8cb8 <display_menu+0xe9>
    8cb0:	66 b8 01 00 00 00    	mov    $0x1,%eax
    8cb6:	eb 06                	jmp    8cbe <display_menu+0xef>
    8cb8:	66 b8 00 00 00 00    	mov    $0x0,%eax
    8cbe:	67 66 89 45 d8       	mov    %eax,-0x28(%ebp)
    8cc3:	67 66 8b 45 f0       	mov    -0x10(%ebp),%eax
    8cc8:	67 66 0f b7 00       	movzwl (%eax),%eax
    8ccd:	85 c0                	test   %ax,%ax
    8ccf:	74 0c                	je     8cdd <display_menu+0x10e>
    8cd1:	67 66 8b 45 f0       	mov    -0x10(%ebp),%eax
    8cd6:	67 66 0f b7 00       	movzwl (%eax),%eax
    8cdb:	eb 20                	jmp    8cfd <display_menu+0x12e>
    8cdd:	67 66 8b 45 f0       	mov    -0x10(%ebp),%eax
    8ce2:	67 66 0f b7 40 04    	movzwl 0x4(%eax),%eax
    8ce8:	66 c1 e0 08          	shl    $0x8,%eax
    8cec:	66 89 c2             	mov    %eax,%edx
    8cef:	67 66 8b 45 f0       	mov    -0x10(%ebp),%eax
    8cf4:	67 66 0f b7 40 02    	movzwl 0x2(%eax),%eax
    8cfa:	66 01 d0             	add    %edx,%eax
    8cfd:	67 89 45 d6          	mov    %ax,-0x2a(%ebp)
    8d01:	67 66 83 7d d8 00    	cmpl   $0x0,-0x28(%ebp)
    8d07:	0f 84 17 01          	je     8e22 <display_menu+0x253>
    8d0b:	67 66 8b 45 f0       	mov    -0x10(%ebp),%eax
    8d10:	67 66 0f b7 40 06    	movzwl 0x6(%eax),%eax
    8d16:	85 c0                	test   %ax,%ax
    8d18:	74 3b                	je     8d55 <display_menu+0x186>
    8d1a:	67 66 8b 45 f0       	mov    -0x10(%ebp),%eax
    8d1f:	67 66 0f b7 40 06    	movzwl 0x6(%eax),%eax
    8d25:	66 0f b7 d0          	movzwl %ax,%edx
    8d29:	67 66 8b 45 f0       	mov    -0x10(%ebp),%eax
    8d2e:	67 66 0f b7 40 04    	movzwl 0x4(%eax),%eax
    8d34:	66 0f b7 c0          	movzwl %ax,%eax
    8d38:	66 52                	push   %edx
    8d3a:	66 50                	push   %eax
    8d3c:	66 68 5a b5 00 00    	pushl  $0xb55a
    8d42:	67 66 8d 45 b6       	lea    -0x4a(%ebp),%eax
    8d47:	66 50                	push   %eax
    8d49:	66 e8 dc 24 00 00    	calll  b22b <sprintf>
    8d4f:	66 83 c4 10          	add    $0x10,%esp
    8d53:	eb 2c                	jmp    8d81 <display_menu+0x1b2>
    8d55:	67 66 8b 45 f0       	mov    -0x10(%ebp),%eax
    8d5a:	67 66 0f b7 40 04    	movzwl 0x4(%eax),%eax
    8d60:	66 0f b7 c0          	movzwl %ax,%eax
    8d64:	66 83 ec 04          	sub    $0x4,%esp
    8d68:	66 50                	push   %eax
    8d6a:	66 68 60 b5 00 00    	pushl  $0xb560
    8d70:	67 66 8d 45 b6       	lea    -0x4a(%ebp),%eax
    8d75:	66 50                	push   %eax
    8d77:	66 e8 ae 24 00 00    	calll  b22b <sprintf>
    8d7d:	66 83 c4 10          	add    $0x10,%esp
    8d81:	67 66 8b 45 f4       	mov    -0xc(%ebp),%eax
    8d86:	67 66 8b 18          	mov    (%eax),%ebx
    8d8a:	67 66 8b 45 f0       	mov    -0x10(%ebp),%eax
    8d8f:	67 66 0f b7 40 02    	movzwl 0x2(%eax),%eax
    8d95:	66 0f b7 c8          	movzwl %ax,%ecx
    8d99:	67 66 0f b7 55 d6    	movzwl -0x2a(%ebp),%edx
    8d9f:	67 66 0f be 45 ef    	movsbl -0x11(%ebp),%eax
    8da5:	66 83 ec 08          	sub    $0x8,%esp
    8da9:	66 53                	push   %ebx
    8dab:	67 66 8d 5d b6       	lea    -0x4a(%ebp),%ebx
    8db0:	66 53                	push   %ebx
    8db2:	66 51                	push   %ecx
    8db4:	66 52                	push   %edx
    8db6:	66 50                	push   %eax
    8db8:	66 68 63 b5 00 00    	pushl  $0xb563
    8dbe:	66 e8 a7 24 00 00    	calll  b26b <printf>
    8dc4:	66 83 c4 20          	add    $0x20,%esp
    8dc8:	67 66 83 45 dc 01    	addl   $0x1,-0x24(%ebp)
    8dce:	67 66 8b 45 dc       	mov    -0x24(%ebp),%eax
    8dd3:	67 66 3b 45 e0       	cmp    -0x20(%ebp),%eax
    8dd8:	7c 15                	jl     8def <display_menu+0x220>
    8dda:	66 b8 0a 00 00 00    	mov    $0xa,%eax
    8de0:	66 e8 af ef ff ff    	calll  7d95 <my_putchar>
    8de6:	67 66 c7 45 dc 00 00 	movl   $0x0,-0x24(%ebp)
    8ded:	00 00 
    8def:	67 80 7d ef 39       	cmpb   $0x39,-0x11(%ebp)
    8df4:	75 07                	jne    8dfd <display_menu+0x22e>
    8df6:	67 c6 45 ef 61       	movb   $0x61,-0x11(%ebp)
    8dfb:	eb 26                	jmp    8e23 <display_menu+0x254>
    8dfd:	67 80 7d ef 7a       	cmpb   $0x7a,-0x11(%ebp)
    8e02:	74 07                	je     8e0b <display_menu+0x23c>
    8e04:	67 80 7d ef 20       	cmpb   $0x20,-0x11(%ebp)
    8e09:	75 07                	jne    8e12 <display_menu+0x243>
    8e0b:	67 c6 45 ef 20       	movb   $0x20,-0x11(%ebp)
    8e10:	eb 11                	jmp    8e23 <display_menu+0x254>
    8e12:	67 66 0f b6 45 ef    	movzbl -0x11(%ebp),%eax
    8e18:	66 83 c0 01          	add    $0x1,%eax
    8e1c:	67 88 45 ef          	mov    %al,-0x11(%ebp)
    8e20:	eb 01                	jmp    8e23 <display_menu+0x254>
    8e22:	90                   	nop
    8e23:	67 66 83 45 e8 01    	addl   $0x1,-0x18(%ebp)
    8e29:	67 66 83 45 f0 08    	addl   $0x8,-0x10(%ebp)
    8e2f:	67 66 8b 45 f4       	mov    -0xc(%ebp),%eax
    8e34:	67 66 8b 40 10       	mov    0x10(%eax),%eax
    8e39:	67 66 3b 45 e8       	cmp    -0x18(%ebp),%eax
    8e3e:	0f 8f 50 fe          	jg     8c92 <display_menu+0xc3>
    8e42:	67 66 83 45 f4 1c    	addl   $0x1c,-0xc(%ebp)
    8e48:	67 66 81 7d f4 44 c6 	cmpl   $0xc644,-0xc(%ebp)
    8e4f:	00 00 
    8e51:	0f 82 22 fe          	jb     8c77 <display_menu+0xa8>
    8e55:	67 66 83 7d dc 00    	cmpl   $0x0,-0x24(%ebp)
    8e5b:	74 0c                	je     8e69 <display_menu+0x29a>
    8e5d:	66 b8 0a 00 00 00    	mov    $0xa,%eax
    8e63:	66 e8 2c ef ff ff    	calll  7d95 <my_putchar>
    8e69:	90                   	nop
    8e6a:	67 66 8b 5d fc       	mov    -0x4(%ebp),%ebx
    8e6f:	66 c9                	leavel 
    8e71:	66 c3                	retl   

00008e73 <mode_menu>:
    8e73:	66 55                	push   %ebp
    8e75:	66 89 e5             	mov    %esp,%ebp
    8e78:	66 83 ec 18          	sub    $0x18,%esp
    8e7c:	66 b8 7c b5 00 00    	mov    $0xb57c,%eax
    8e82:	66 e8 73 ef ff ff    	calll  7dfb <puts>
    8e88:	66 e8 c8 f2 ff ff    	calll  8156 <kbd_flush>
    8e8e:	66 e8 e4 f2 ff ff    	calll  8178 <getchar_timeout>
    8e94:	67 66 89 45 f4       	mov    %eax,-0xc(%ebp)
    8e99:	67 66 83 7d f4 20    	cmpl   $0x20,-0xc(%ebp)
    8e9f:	74 08                	je     8ea9 <mode_menu+0x36>
    8ea1:	67 66 83 7d f4 00    	cmpl   $0x0,-0xc(%ebp)
    8ea7:	75 08                	jne    8eb1 <mode_menu+0x3e>
    8ea9:	66 b8 04 0f 00 00    	mov    $0xf04,%eax
    8eaf:	eb 55                	jmp    8f06 <mode_menu+0x93>
    8eb1:	67 66 83 7d f4 0d    	cmpl   $0xd,-0xc(%ebp)
    8eb7:	75 02                	jne    8ebb <mode_menu+0x48>
    8eb9:	eb 0e                	jmp    8ec9 <mode_menu+0x56>
    8ebb:	66 b8 07 00 00 00    	mov    $0x7,%eax
    8ec1:	66 e8 ce ee ff ff    	calll  7d95 <my_putchar>
    8ec7:	eb c5                	jmp    8e8e <mode_menu+0x1b>
    8ec9:	66 e8 00 fd ff ff    	calll  8bcf <display_menu>
    8ecf:	66 b8 cc b5 00 00    	mov    $0xb5cc,%eax
    8ed5:	66 e8 20 ef ff ff    	calll  7dfb <puts>
    8edb:	66 e8 0c fb ff ff    	calll  89ed <get_entry>
    8ee1:	67 66 89 45 f0       	mov    %eax,-0x10(%ebp)
    8ee6:	67 66 81 7d f0 b7 cc 	cmpl   $0x1ccb7,-0x10(%ebp)
    8eed:	01 00 
    8eef:	74 07                	je     8ef8 <mode_menu+0x85>
    8ef1:	67 66 8b 45 f0       	mov    -0x10(%ebp),%eax
    8ef6:	eb 0e                	jmp    8f06 <mode_menu+0x93>
    8ef8:	66 b8 01 00 00 00    	mov    $0x1,%eax
    8efe:	66 e8 2d fc ff ff    	calll  8b31 <probe_cards>
    8f04:	eb c3                	jmp    8ec9 <mode_menu+0x56>
    8f06:	66 c9                	leavel 
    8f08:	66 c3                	retl   

00008f0a <save_screen>:
    8f0a:	66 55                	push   %ebp
    8f0c:	66 89 e5             	mov    %esp,%ebp
    8f0f:	66 83 ec 08          	sub    $0x8,%esp
    8f13:	66 0f b6 06 be d5    	movzbl -0x2a42,%eax
    8f19:	66 0f b6 c0          	movzbl %al,%eax
    8f1d:	66 a3 00 c7          	mov    %eax,0xc700
    8f21:	66 0f b6 06 c5 d5    	movzbl -0x2a3b,%eax
    8f27:	66 0f b6 c0          	movzbl %al,%eax
    8f2b:	66 a3 04 c7          	mov    %eax,0xc704
    8f2f:	66 0f b6 06 b7 d5    	movzbl -0x2a49,%eax
    8f35:	66 0f b6 c0          	movzbl %al,%eax
    8f39:	66 a3 08 c7          	mov    %eax,0xc708
    8f3d:	66 0f b6 06 b8 d5    	movzbl -0x2a48,%eax
    8f43:	66 0f b6 c0          	movzbl %al,%eax
    8f47:	66 a3 0c c7          	mov    %eax,0xc70c
    8f4b:	66 8b 16 00 c7       	mov    -0x3900,%edx
    8f50:	66 a1 04 c7          	mov    0xc704,%eax
    8f54:	66 0f af c2          	imul   %edx,%eax
    8f58:	66 05 00 01 00 00    	add    $0x100,%eax
    8f5e:	66 01 c0             	add    %eax,%eax
    8f61:	66 e8 35 f7 ff ff    	calll  869c <heap_free>
    8f67:	66 85 c0             	test   %eax,%eax
    8f6a:	74 5d                	je     8fc9 <save_screen+0xbf>
    8f6c:	66 8b 16 00 c7       	mov    -0x3900,%edx
    8f71:	66 a1 04 c7          	mov    0xc704,%eax
    8f75:	66 0f af c2          	imul   %edx,%eax
    8f79:	66 89 c1             	mov    %eax,%ecx
    8f7c:	66 ba 02 00 00 00    	mov    $0x2,%edx
    8f82:	66 b8 02 00 00 00    	mov    $0x2,%eax
    8f88:	66 e8 aa f6 ff ff    	calll  8638 <__get_heap>
    8f8e:	66 a3 10 c7          	mov    %eax,0xc710
    8f92:	66 0f b7 06 fc d5    	movzwl -0x2a04,%eax
    8f98:	66 0f b7 c0          	movzwl %ax,%eax
    8f9c:	66 e8 ea f7 ff ff    	calll  878c <set_fs>
    8fa2:	66 8b 16 00 c7       	mov    -0x3900,%edx
    8fa7:	66 a1 04 c7          	mov    0xc704,%eax
    8fab:	66 0f af c2          	imul   %edx,%eax
    8faf:	67 66 8d 14 00       	lea    (%eax,%eax,1),%edx
    8fb4:	66 a1 10 c7          	mov    0xc710,%eax
    8fb8:	66 89 d1             	mov    %edx,%ecx
    8fbb:	66 ba 00 00 00 00    	mov    $0x0,%edx
    8fc1:	66 e8 ea f0 ff ff    	calll  80b1 <copy_from_fs>
    8fc7:	eb 01                	jmp    8fca <save_screen+0xc0>
    8fc9:	90                   	nop
    8fca:	66 c9                	leavel 
    8fcc:	66 c3                	retl   

00008fce <mode_defined>:
    8fce:	66 55                	push   %ebp
    8fd0:	66 89 e5             	mov    %esp,%ebp
    8fd3:	66 83 ec 14          	sub    $0x14,%esp
    8fd7:	67 89 45 ec          	mov    %ax,-0x14(%ebp)
    8fdb:	67 66 c7 45 fc f0 c5 	movl   $0xc5f0,-0x4(%ebp)
    8fe2:	00 00 
    8fe4:	eb 55                	jmp    903b <mode_defined+0x6d>
    8fe6:	67 66 8b 45 fc       	mov    -0x4(%ebp),%eax
    8feb:	67 66 8b 40 0c       	mov    0xc(%eax),%eax
    8ff0:	67 66 89 45 f8       	mov    %eax,-0x8(%ebp)
    8ff5:	67 66 c7 45 f4 00 00 	movl   $0x0,-0xc(%ebp)
    8ffc:	00 00 
    8ffe:	eb 24                	jmp    9024 <mode_defined+0x56>
    9000:	67 66 8b 45 f8       	mov    -0x8(%ebp),%eax
    9005:	67 66 0f b7 00       	movzwl (%eax),%eax
    900a:	67 3b 45 ec          	cmp    -0x14(%ebp),%ax
    900e:	75 08                	jne    9018 <mode_defined+0x4a>
    9010:	66 b8 01 00 00 00    	mov    $0x1,%eax
    9016:	eb 34                	jmp    904c <mode_defined+0x7e>
    9018:	67 66 83 45 f4 01    	addl   $0x1,-0xc(%ebp)
    901e:	67 66 83 45 f8 08    	addl   $0x8,-0x8(%ebp)
    9024:	67 66 8b 45 fc       	mov    -0x4(%ebp),%eax
    9029:	67 66 8b 40 10       	mov    0x10(%eax),%eax
    902e:	67 66 3b 45 f4       	cmp    -0xc(%ebp),%eax
    9033:	7f cb                	jg     9000 <mode_defined+0x32>
    9035:	67 66 83 45 fc 1c    	addl   $0x1c,-0x4(%ebp)
    903b:	67 66 81 7d fc 44 c6 	cmpl   $0xc644,-0x4(%ebp)
    9042:	00 00 
    9044:	72 a0                	jb     8fe6 <mode_defined+0x18>
    9046:	66 b8 00 00 00 00    	mov    $0x0,%eax
    904c:	66 c9                	leavel 
    904e:	66 c3                	retl   

00009050 <vga_recalc_vertical>:
    9050:	66 55                	push   %ebp
    9052:	66 89 e5             	mov    %esp,%ebp
    9055:	66 83 ec 18          	sub    $0x18,%esp
    9059:	66 b8 00 00 00 00    	mov    $0x0,%eax
    905f:	66 e8 27 f7 ff ff    	calll  878c <set_fs>
    9065:	66 b8 85 04 00 00    	mov    $0x485,%eax
    906b:	66 e8 7f f6 ff ff    	calll  86f0 <rdfs8>
    9071:	66 0f b6 c0          	movzbl %al,%eax
    9075:	67 66 89 45 f4       	mov    %eax,-0xc(%ebp)
    907a:	66 a1 04 d6          	mov    0xd604,%eax
    907e:	66 85 c0             	test   %eax,%eax
    9081:	75 16                	jne    9099 <vga_recalc_vertical+0x49>
    9083:	66 b8 84 04 00 00    	mov    $0x484,%eax
    9089:	66 e8 61 f6 ff ff    	calll  86f0 <rdfs8>
    908f:	66 0f b6 c0          	movzbl %al,%eax
    9093:	66 83 c0 01          	add    $0x1,%eax
    9097:	eb 04                	jmp    909d <vga_recalc_vertical+0x4d>
    9099:	66 a1 04 d6          	mov    0xd604,%eax
    909d:	67 66 89 45 f0       	mov    %eax,-0x10(%ebp)
    90a2:	67 66 8b 45 f0       	mov    -0x10(%ebp),%eax
    90a7:	67 66 0f af 45 f4    	imul   -0xc(%ebp),%eax
    90ad:	67 66 89 45 f0       	mov    %eax,-0x10(%ebp)
    90b2:	67 66 83 6d f0 01    	subl   $0x1,-0x10(%ebp)
    90b8:	66 e8 0e 0c 00 00    	calll  9ccc <vga_crtc>
    90be:	67 89 45 ee          	mov    %ax,-0x12(%ebp)
    90c2:	67 66 0f b7 45 ee    	movzwl -0x12(%ebp),%eax
    90c8:	66 ba 11 00 00 00    	mov    $0x11,%edx
    90ce:	66 e8 ce f6 ff ff    	calll  87a2 <in_idx>
    90d4:	67 88 45 ed          	mov    %al,-0x13(%ebp)
    90d8:	67 80 65 ed 7f       	andb   $0x7f,-0x13(%ebp)
    90dd:	67 66 0f b7 55 ee    	movzwl -0x12(%ebp),%edx
    90e3:	67 66 0f b6 45 ed    	movzbl -0x13(%ebp),%eax
    90e9:	66 b9 11 00 00 00    	mov    $0x11,%ecx
    90ef:	66 e8 ee f6 ff ff    	calll  87e3 <out_idx>
    90f5:	67 66 0f b7 55 ee    	movzwl -0x12(%ebp),%edx
    90fb:	67 66 8b 45 f0       	mov    -0x10(%ebp),%eax
    9100:	66 0f b6 c0          	movzbl %al,%eax
    9104:	66 b9 12 00 00 00    	mov    $0x12,%ecx
    910a:	66 e8 d3 f6 ff ff    	calll  87e3 <out_idx>
    9110:	67 66 0f b7 45 ee    	movzwl -0x12(%ebp),%eax
    9116:	66 ba 07 00 00 00    	mov    $0x7,%edx
    911c:	66 e8 80 f6 ff ff    	calll  87a2 <in_idx>
    9122:	67 88 45 ec          	mov    %al,-0x14(%ebp)
    9126:	67 80 65 ec bd       	andb   $0xbd,-0x14(%ebp)
    912b:	67 66 8b 45 f0       	mov    -0x10(%ebp),%eax
    9130:	66 c1 e8 07          	shr    $0x7,%eax
    9134:	66 83 e0 02          	and    $0x2,%eax
    9138:	67 08 45 ec          	or     %al,-0x14(%ebp)
    913c:	67 66 8b 45 f0       	mov    -0x10(%ebp),%eax
    9141:	66 c1 e8 03          	shr    $0x3,%eax
    9145:	66 83 e0 40          	and    $0x40,%eax
    9149:	67 08 45 ec          	or     %al,-0x14(%ebp)
    914d:	67 66 0f b7 55 ee    	movzwl -0x12(%ebp),%edx
    9153:	67 66 0f b6 45 ec    	movzbl -0x14(%ebp),%eax
    9159:	66 b9 07 00 00 00    	mov    $0x7,%ecx
    915f:	66 e8 7e f6 ff ff    	calll  87e3 <out_idx>
    9165:	90                   	nop
    9166:	66 c9                	leavel 
    9168:	66 c3                	retl   

0000916a <raw_set_mode>:
    916a:	66 55                	push   %ebp
    916c:	66 89 e5             	mov    %esp,%ebp
    916f:	66 83 ec 38          	sub    $0x38,%esp
    9173:	67 66 89 55 d0       	mov    %edx,-0x30(%ebp)
    9178:	67 89 45 d4          	mov    %ax,-0x2c(%ebp)
    917c:	67 81 65 d4 ff 7f    	andw   $0x7fff,-0x2c(%ebp)
    9182:	67 66 c7 45 f4 00 00 	movl   $0x0,-0xc(%ebp)
    9189:	00 00 
    918b:	67 66 c7 45 ec f0 c5 	movl   $0xc5f0,-0x14(%ebp)
    9192:	00 00 
    9194:	e9 fe 00             	jmp    9295 <raw_set_mode+0x12b>
    9197:	67 66 8b 45 ec       	mov    -0x14(%ebp),%eax
    919c:	67 66 8b 40 0c       	mov    0xc(%eax),%eax
    91a1:	67 66 89 45 e8       	mov    %eax,-0x18(%ebp)
    91a6:	67 66 c7 45 f0 00 00 	movl   $0x0,-0x10(%ebp)
    91ad:	00 00 
    91af:	e9 ca 00             	jmp    927c <raw_set_mode+0x112>
    91b2:	67 66 8b 45 e8       	mov    -0x18(%ebp),%eax
    91b7:	67 66 0f b7 40 02    	movzwl 0x2(%eax),%eax
    91bd:	85 c0                	test   %ax,%ax
    91bf:	75 0f                	jne    91d0 <raw_set_mode+0x66>
    91c1:	67 66 8b 45 e8       	mov    -0x18(%ebp),%eax
    91c6:	67 66 0f b7 40 04    	movzwl 0x4(%eax),%eax
    91cc:	85 c0                	test   %ax,%ax
    91ce:	74 08                	je     91d8 <raw_set_mode+0x6e>
    91d0:	66 b8 01 00 00 00    	mov    $0x1,%eax
    91d6:	eb 06                	jmp    91de <raw_set_mode+0x74>
    91d8:	66 b8 00 00 00 00    	mov    $0x0,%eax
    91de:	67 66 89 45 e4       	mov    %eax,-0x1c(%ebp)
    91e3:	67 66 0f b7 45 d4    	movzwl -0x2c(%ebp),%eax
    91e9:	67 66 3b 45 f4       	cmp    -0xc(%ebp),%eax
    91ee:	75 08                	jne    91f8 <raw_set_mode+0x8e>
    91f0:	67 66 83 7d e4 00    	cmpl   $0x0,-0x1c(%ebp)
    91f6:	75 43                	jne    923b <raw_set_mode+0xd1>
    91f8:	67 66 8b 45 e8       	mov    -0x18(%ebp),%eax
    91fd:	67 66 0f b7 00       	movzwl (%eax),%eax
    9202:	67 3b 45 d4          	cmp    -0x2c(%ebp),%ax
    9206:	74 33                	je     923b <raw_set_mode+0xd1>
    9208:	67 66 0f b7 55 d4    	movzwl -0x2c(%ebp),%edx
    920e:	67 66 8b 45 e8       	mov    -0x18(%ebp),%eax
    9213:	67 66 0f b7 40 04    	movzwl 0x4(%eax),%eax
    9219:	66 0f b7 c0          	movzwl %ax,%eax
    921d:	66 c1 e0 08          	shl    $0x8,%eax
    9221:	66 89 c1             	mov    %eax,%ecx
    9224:	67 66 8b 45 e8       	mov    -0x18(%ebp),%eax
    9229:	67 66 0f b7 40 02    	movzwl 0x2(%eax),%eax
    922f:	66 0f b7 c0          	movzwl %ax,%eax
    9233:	66 01 c8             	add    %ecx,%eax
    9236:	66 39 c2             	cmp    %eax,%edx
    9239:	75 27                	jne    9262 <raw_set_mode+0xf8>
    923b:	67 66 8b 45 e8       	mov    -0x18(%ebp),%eax
    9240:	67 66 0f b7 10       	movzwl (%eax),%edx
    9245:	67 66 8b 45 d0       	mov    -0x30(%ebp),%eax
    924a:	67 89 10             	mov    %dx,(%eax)
    924d:	67 66 8b 45 ec       	mov    -0x14(%ebp),%eax
    9252:	67 66 8b 50 04       	mov    0x4(%eax),%edx
    9257:	67 66 8b 45 e8       	mov    -0x18(%ebp),%eax
    925c:	66 ff d2             	calll  *%edx
    925f:	e9 dd 00             	jmp    933f <raw_set_mode+0x1d5>
    9262:	67 66 83 7d e4 00    	cmpl   $0x0,-0x1c(%ebp)
    9268:	74 06                	je     9270 <raw_set_mode+0x106>
    926a:	67 66 83 45 f4 01    	addl   $0x1,-0xc(%ebp)
    9270:	67 66 83 45 f0 01    	addl   $0x1,-0x10(%ebp)
    9276:	67 66 83 45 e8 08    	addl   $0x8,-0x18(%ebp)
    927c:	67 66 8b 45 ec       	mov    -0x14(%ebp),%eax
    9281:	67 66 8b 40 10       	mov    0x10(%eax),%eax
    9286:	67 66 3b 45 f0       	cmp    -0x10(%ebp),%eax
    928b:	0f 8f 23 ff          	jg     91b2 <raw_set_mode+0x48>
    928f:	67 66 83 45 ec 1c    	addl   $0x1c,-0x14(%ebp)
    9295:	67 66 81 7d ec 44 c6 	cmpl   $0xc644,-0x14(%ebp)
    929c:	00 00 
    929e:	0f 82 f5 fe          	jb     9197 <raw_set_mode+0x2d>
    92a2:	67 66 c7 45 ec f0 c5 	movl   $0xc5f0,-0x14(%ebp)
    92a9:	00 00 
    92ab:	eb 7f                	jmp    932c <raw_set_mode+0x1c2>
    92ad:	67 66 8b 45 ec       	mov    -0x14(%ebp),%eax
    92b2:	67 66 0f b7 40 18    	movzwl 0x18(%eax),%eax
    92b8:	67 3b 45 d4          	cmp    -0x2c(%ebp),%ax
    92bc:	77 68                	ja     9326 <raw_set_mode+0x1bc>
    92be:	67 66 0f b7 55 d4    	movzwl -0x2c(%ebp),%edx
    92c4:	67 66 8b 45 ec       	mov    -0x14(%ebp),%eax
    92c9:	67 66 0f b7 40 18    	movzwl 0x18(%eax),%eax
    92cf:	66 0f b7 c8          	movzwl %ax,%ecx
    92d3:	67 66 8b 45 ec       	mov    -0x14(%ebp),%eax
    92d8:	67 66 0f b7 40 1a    	movzwl 0x1a(%eax),%eax
    92de:	66 0f b7 c0          	movzwl %ax,%eax
    92e2:	66 01 c8             	add    %ecx,%eax
    92e5:	66 39 c2             	cmp    %eax,%edx
    92e8:	7d 3c                	jge    9326 <raw_set_mode+0x1bc>
    92ea:	67 66 0f b7 45 d4    	movzwl -0x2c(%ebp),%eax
    92f0:	67 89 45 dc          	mov    %ax,-0x24(%ebp)
    92f4:	67 66 0f b7 55 dc    	movzwl -0x24(%ebp),%edx
    92fa:	67 66 8b 45 d0       	mov    -0x30(%ebp),%eax
    92ff:	67 89 10             	mov    %dx,(%eax)
    9302:	67 c7 45 e0 00 00    	movw   $0x0,-0x20(%ebp)
    9308:	67 66 0f b7 45 e0    	movzwl -0x20(%ebp),%eax
    930e:	67 89 45 de          	mov    %ax,-0x22(%ebp)
    9312:	67 66 8b 45 ec       	mov    -0x14(%ebp),%eax
    9317:	67 66 8b 50 04       	mov    0x4(%eax),%edx
    931c:	67 66 8d 45 dc       	lea    -0x24(%ebp),%eax
    9321:	66 ff d2             	calll  *%edx
    9324:	eb 19                	jmp    933f <raw_set_mode+0x1d5>
    9326:	67 66 83 45 ec 1c    	addl   $0x1c,-0x14(%ebp)
    932c:	67 66 81 7d ec 44 c6 	cmpl   $0xc644,-0x14(%ebp)
    9333:	00 00 
    9335:	0f 82 74 ff          	jb     92ad <raw_set_mode+0x143>
    9339:	66 b8 ff ff ff ff    	mov    $0xffffffff,%eax
    933f:	66 c9                	leavel 
    9341:	66 c3                	retl   

00009343 <set_mode>:
    9343:	66 55                	push   %ebp
    9345:	66 89 e5             	mov    %esp,%ebp
    9348:	66 83 ec 28          	sub    $0x28,%esp
    934c:	67 89 45 e4          	mov    %ax,-0x1c(%ebp)
    9350:	67 81 7d e4 04 0f    	cmpw   $0xf04,-0x1c(%ebp)
    9356:	75 08                	jne    9360 <set_mode+0x1d>
    9358:	66 b8 00 00 00 00    	mov    $0x0,%eax
    935e:	eb 57                	jmp    93b7 <set_mode+0x74>
    9360:	67 83 7d e4 ff       	cmpw   $0xffff,-0x1c(%ebp)
    9365:	75 08                	jne    936f <set_mode+0x2c>
    9367:	67 c7 45 e4 00 0f    	movw   $0xf00,-0x1c(%ebp)
    936d:	eb 0d                	jmp    937c <set_mode+0x39>
    936f:	67 83 7d e4 fe       	cmpw   $0xfffe,-0x1c(%ebp)
    9374:	75 06                	jne    937c <set_mode+0x39>
    9376:	67 c7 45 e4 01 0f    	movw   $0xf01,-0x1c(%ebp)
    937c:	67 66 0f b7 45 e4    	movzwl -0x1c(%ebp),%eax
    9382:	67 66 8d 55 f2       	lea    -0xe(%ebp),%edx
    9387:	66 e8 dd fd ff ff    	calll  916a <raw_set_mode>
    938d:	67 66 89 45 f4       	mov    %eax,-0xc(%ebp)
    9392:	67 66 83 7d f4 00    	cmpl   $0x0,-0xc(%ebp)
    9398:	74 07                	je     93a1 <set_mode+0x5e>
    939a:	67 66 8b 45 f4       	mov    -0xc(%ebp),%eax
    939f:	eb 16                	jmp    93b7 <set_mode+0x74>
    93a1:	67 66 0f b7 45 e4    	movzwl -0x1c(%ebp),%eax
    93a7:	85 c0                	test   %ax,%ax
    93a9:	79 06                	jns    93b1 <set_mode+0x6e>
    93ab:	66 e8 9f fc ff ff    	calll  9050 <vga_recalc_vertical>
    93b1:	66 b8 00 00 00 00    	mov    $0x0,%eax
    93b7:	66 c9                	leavel 
    93b9:	66 c3                	retl   

000093bb <set_video>:
    93bb:	66 55                	push   %ebp
    93bd:	66 89 e5             	mov    %esp,%ebp
    93c0:	66 83 ec 18          	sub    $0x18,%esp
    93c4:	66 0f b7 06 59 d5    	movzwl -0x2aa7,%eax
    93ca:	67 89 45 f6          	mov    %ax,-0xa(%ebp)
    93ce:	66 c7 06 60 c6 10 d6 	movl   $0xd610,-0x39a0
    93d5:	00 00 
    93d7:	66 e8 46 f5 ff ff    	calll  8923 <store_mode_params>
    93dd:	66 e8 27 fb ff ff    	calll  8f0a <save_screen>
    93e3:	66 b8 00 00 00 00    	mov    $0x0,%eax
    93e9:	66 e8 42 f7 ff ff    	calll  8b31 <probe_cards>
    93ef:	66 e8 7e fa ff ff    	calll  8e73 <mode_menu>
    93f5:	67 89 45 f6          	mov    %ax,-0xa(%ebp)
    93f9:	67 66 0f b7 45 f6    	movzwl -0xa(%ebp),%eax
    93ff:	66 e8 3e ff ff ff    	calll  9343 <set_mode>
    9405:	66 85 c0             	test   %eax,%eax
    9408:	74 24                	je     942e <set_video+0x73>
    940a:	67 66 0f b7 45 f6    	movzwl -0xa(%ebp),%eax
    9410:	66 83 ec 08          	sub    $0x8,%esp
    9414:	66 50                	push   %eax
    9416:	66 68 08 b6 00 00    	pushl  $0xb608
    941c:	66 e8 49 1e 00 00    	calll  b26b <printf>
    9422:	66 83 c4 10          	add    $0x10,%esp
    9426:	67 c7 45 f6 fd ff    	movw   $0xfffd,-0xa(%ebp)
    942c:	eb c1                	jmp    93ef <set_video+0x34>
    942e:	90                   	nop
    942f:	67 66 0f b7 45 f6    	movzwl -0xa(%ebp),%eax
    9435:	a3 59 d5             	mov    %ax,0xd559
    9438:	66 e8 e5 f4 ff ff    	calll  8923 <store_mode_params>
    943e:	90                   	nop
    943f:	66 c9                	leavel 
    9441:	66 c3                	retl   

00009443 <__get_heap>:
    9443:	66 55                	push   %ebp
    9445:	66 89 e5             	mov    %esp,%ebp
    9448:	66 83 ec 1c          	sub    $0x1c,%esp
    944c:	67 66 89 45 ec       	mov    %eax,-0x14(%ebp)
    9451:	67 66 89 55 e8       	mov    %edx,-0x18(%ebp)
    9456:	67 66 89 4d e4       	mov    %ecx,-0x1c(%ebp)
    945b:	66 a1 60 c6          	mov    0xc660,%eax
    945f:	66 89 c2             	mov    %eax,%edx
    9462:	67 66 8b 45 e8       	mov    -0x18(%ebp),%eax
    9467:	66 01 d0             	add    %edx,%eax
    946a:	67 66 8d 50 ff       	lea    -0x1(%eax),%edx
    946f:	67 66 8b 45 e8       	mov    -0x18(%ebp),%eax
    9474:	66 f7 d8             	neg    %eax
    9477:	66 21 d0             	and    %edx,%eax
    947a:	66 a3 60 c6          	mov    %eax,0xc660
    947e:	66 a1 60 c6          	mov    0xc660,%eax
    9482:	67 66 89 45 fc       	mov    %eax,-0x4(%ebp)
    9487:	66 8b 16 60 c6       	mov    -0x39a0,%edx
    948c:	67 66 8b 45 ec       	mov    -0x14(%ebp),%eax
    9491:	67 66 0f af 45 e4    	imul   -0x1c(%ebp),%eax
    9497:	66 01 d0             	add    %edx,%eax
    949a:	66 a3 60 c6          	mov    %eax,0xc660
    949e:	67 66 8b 45 fc       	mov    -0x4(%ebp),%eax
    94a3:	66 c9                	leavel 
    94a5:	66 c3                	retl   

000094a7 <heap_free>:
    94a7:	66 55                	push   %ebp
    94a9:	66 89 e5             	mov    %esp,%ebp
    94ac:	66 83 ec 04          	sub    $0x4,%esp
    94b0:	67 66 89 45 fc       	mov    %eax,-0x4(%ebp)
    94b5:	66 a1 64 c6          	mov    0xc664,%eax
    94b9:	66 89 c2             	mov    %eax,%edx
    94bc:	66 a1 60 c6          	mov    0xc660,%eax
    94c0:	66 29 c2             	sub    %eax,%edx
    94c3:	67 66 8b 45 fc       	mov    -0x4(%ebp),%eax
    94c8:	66 39 c2             	cmp    %eax,%edx
    94cb:	0f 9d c0             	setge  %al
    94ce:	66 0f b6 c0          	movzbl %al,%eax
    94d2:	66 c9                	leavel 
    94d4:	66 c3                	retl   

000094d6 <rdfs16>:
    94d6:	66 55                	push   %ebp
    94d8:	66 89 e5             	mov    %esp,%ebp
    94db:	66 83 ec 14          	sub    $0x14,%esp
    94df:	67 66 89 45 ec       	mov    %eax,-0x14(%ebp)
    94e4:	67 66 8b 45 ec       	mov    -0x14(%ebp),%eax
    94e9:	64 67 8b 00          	mov    %fs:(%eax),%ax
    94ed:	67 89 45 fe          	mov    %ax,-0x2(%ebp)
    94f1:	67 66 0f b7 45 fe    	movzwl -0x2(%ebp),%eax
    94f7:	66 c9                	leavel 
    94f9:	66 c3                	retl   

000094fb <set_fs>:
    94fb:	66 55                	push   %ebp
    94fd:	66 89 e5             	mov    %esp,%ebp
    9500:	66 83 ec 04          	sub    $0x4,%esp
    9504:	67 89 45 fc          	mov    %ax,-0x4(%ebp)
    9508:	67 8e 65 fc          	mov    -0x4(%ebp),%fs
    950c:	90                   	nop
    950d:	66 c9                	leavel 
    950f:	66 c3                	retl   

00009511 <vesa_dac_set_8bits>:
    9511:	66 55                	push   %ebp
    9513:	66 89 e5             	mov    %esp,%ebp
    9516:	66 83 ec 68          	sub    $0x68,%esp
    951a:	67 c6 45 f7 06       	movb   $0x6,-0x9(%ebp)
    951f:	66 a1 2a c7          	mov    0xc72a,%eax
    9523:	66 83 e0 01          	and    $0x1,%eax
    9527:	66 85 c0             	test   %eax,%eax
    952a:	74 47                	je     9573 <vesa_dac_set_8bits+0x62>
    952c:	67 66 8d 45 c8       	lea    -0x38(%ebp),%eax
    9531:	66 e8 37 ed ff ff    	calll  826e <initregs>
    9537:	67 c7 45 e4 08 4f    	movw   $0x4f08,-0x1c(%ebp)
    953d:	67 c6 45 d9 08       	movb   $0x8,-0x27(%ebp)
    9542:	67 66 8d 55 9c       	lea    -0x64(%ebp),%edx
    9547:	67 66 8d 45 c8       	lea    -0x38(%ebp),%eax
    954c:	66 89 d1             	mov    %edx,%ecx
    954f:	66 89 c2             	mov    %eax,%edx
    9552:	66 b8 10 00 00 00    	mov    $0x10,%eax
    9558:	66 e8 9d ed ff ff    	calll  82fb <intcall>
    955e:	67 66 0f b7 45 b8    	movzwl -0x48(%ebp),%eax
    9564:	83 f8 4f             	cmp    $0x4f,%ax
    9567:	75 0a                	jne    9573 <vesa_dac_set_8bits+0x62>
    9569:	67 66 0f b6 45 ad    	movzbl -0x53(%ebp),%eax
    956f:	67 88 45 f7          	mov    %al,-0x9(%ebp)
    9573:	67 66 0f b6 45 f7    	movzbl -0x9(%ebp),%eax
    9579:	a2 dd d5             	mov    %al,0xd5dd
    957c:	67 66 0f b6 45 f7    	movzbl -0x9(%ebp),%eax
    9582:	a2 df d5             	mov    %al,0xd5df
    9585:	67 66 0f b6 45 f7    	movzbl -0x9(%ebp),%eax
    958b:	a2 e1 d5             	mov    %al,0xd5e1
    958e:	67 66 0f b6 45 f7    	movzbl -0x9(%ebp),%eax
    9594:	a2 e3 d5             	mov    %al,0xd5e3
    9597:	c6 06 de d5 00       	movb   $0x0,-0x2a22
    959c:	c6 06 e0 d5 00       	movb   $0x0,-0x2a20
    95a1:	c6 06 e2 d5 00       	movb   $0x0,-0x2a1e
    95a6:	c6 06 e4 d5 00       	movb   $0x0,-0x2a1c
    95ab:	90                   	nop
    95ac:	66 c9                	leavel 
    95ae:	66 c3                	retl   

000095b0 <vesa_store_pm_info>:
    95b0:	66 55                	push   %ebp
    95b2:	66 89 e5             	mov    %esp,%ebp
    95b5:	66 83 ec 68          	sub    $0x68,%esp
    95b9:	67 66 8d 45 cc       	lea    -0x34(%ebp),%eax
    95be:	66 e8 aa ec ff ff    	calll  826e <initregs>
    95c4:	67 c7 45 e8 0a 4f    	movw   $0x4f0a,-0x18(%ebp)
    95ca:	67 66 8d 55 a0       	lea    -0x60(%ebp),%edx
    95cf:	67 66 8d 45 cc       	lea    -0x34(%ebp),%eax
    95d4:	66 89 d1             	mov    %edx,%ecx
    95d7:	66 89 c2             	mov    %eax,%edx
    95da:	66 b8 10 00 00 00    	mov    $0x10,%eax
    95e0:	66 e8 15 ed ff ff    	calll  82fb <intcall>
    95e6:	67 66 0f b7 45 bc    	movzwl -0x44(%ebp),%eax
    95ec:	83 f8 4f             	cmp    $0x4f,%ax
    95ef:	75 14                	jne    9605 <vesa_store_pm_info+0x55>
    95f1:	67 66 0f b7 45 c4    	movzwl -0x3c(%ebp),%eax
    95f7:	a3 e5 d5             	mov    %ax,0xd5e5
    95fa:	67 66 0f b7 45 a0    	movzwl -0x60(%ebp),%eax
    9600:	a3 e7 d5             	mov    %ax,0xd5e7
    9603:	eb 01                	jmp    9606 <vesa_store_pm_info+0x56>
    9605:	90                   	nop
    9606:	66 c9                	leavel 
    9608:	66 c3                	retl   

0000960a <vesa_store_mode_params_graphics>:
    960a:	66 55                	push   %ebp
    960c:	66 89 e5             	mov    %esp,%ebp
    960f:	66 83 ec 08          	sub    $0x8,%esp
    9613:	c6 06 c6 d5 23       	movb   $0x23,-0x2a3a
    9618:	66 0f b7 06 20 c8    	movzwl -0x37e0,%eax
    961e:	a3 eb d5             	mov    %ax,0xd5eb
    9621:	66 0f b7 06 30 c8    	movzwl -0x37d0,%eax
    9627:	a3 db d5             	mov    %ax,0xd5db
    962a:	66 0f b7 06 32 c8    	movzwl -0x37ce,%eax
    9630:	a3 c9 d5             	mov    %ax,0xd5c9
    9633:	66 0f b7 06 34 c8    	movzwl -0x37cc,%eax
    9639:	a3 cb d5             	mov    %ax,0xd5cb
    963c:	66 0f b6 06 39 c8    	movzbl -0x37c7,%eax
    9642:	66 0f b6 c0          	movzbl %al,%eax
    9646:	a3 cd d5             	mov    %ax,0xd5cd
    9649:	66 0f b6 06 3d c8    	movzbl -0x37c3,%eax
    964f:	66 0f b6 c0          	movzbl %al,%eax
    9653:	a3 e9 d5             	mov    %ax,0xd5e9
    9656:	66 a1 48 c8          	mov    0xc848,%eax
    965a:	66 a3 cf d5          	mov    %eax,0xd5cf
    965e:	66 b9 08 00 00 00    	mov    $0x8,%ecx
    9664:	66 ba 3f c8 00 00    	mov    $0xc83f,%edx
    966a:	66 b8 dd d5 00 00    	mov    $0xd5dd,%eax
    9670:	66 e8 06 ea ff ff    	calll  807c <memcpy>
    9676:	66 0f b7 06 32 c7    	movzwl -0x38ce,%eax
    967c:	66 0f b7 c0          	movzwl %ax,%eax
    9680:	66 a3 d3 d5          	mov    %eax,0xd5d3
    9684:	66 0f b6 06 39 c8    	movzbl -0x37c7,%eax
    968a:	3c 08                	cmp    $0x8,%al
    968c:	77 06                	ja     9694 <vesa_store_mode_params_graphics+0x8a>
    968e:	66 e8 7d fe ff ff    	calll  9511 <vesa_dac_set_8bits>
    9694:	66 e8 16 ff ff ff    	calll  95b0 <vesa_store_pm_info>
    969a:	90                   	nop
    969b:	66 c9                	leavel 
    969d:	66 c3                	retl   

0000969f <vesa_probe>:
    969f:	66 55                	push   %ebp
    96a1:	66 89 e5             	mov    %esp,%ebp
    96a4:	66 83 ec 78          	sub    $0x78,%esp
    96a8:	67 66 c7 45 f0 00 00 	movl   $0x0,-0x10(%ebp)
    96af:	00 00 
    96b1:	66 b9 00 00 00 00    	mov    $0x0,%ecx
    96b7:	66 ba 02 00 00 00    	mov    $0x2,%edx
    96bd:	66 b8 08 00 00 00    	mov    $0x8,%eax
    96c3:	66 e8 7a fd ff ff    	calll  9443 <__get_heap>
    96c9:	66 a3 fc c5          	mov    %eax,0xc5fc
    96cd:	67 66 8d 45 bc       	lea    -0x44(%ebp),%eax
    96d2:	66 e8 96 eb ff ff    	calll  826e <initregs>
    96d8:	67 c7 45 d8 00 4f    	movw   $0x4f00,-0x28(%ebp)
    96de:	66 b8 20 c7 00 00    	mov    $0xc720,%eax
    96e4:	67 89 45 bc          	mov    %ax,-0x44(%ebp)
    96e8:	67 66 8d 55 90       	lea    -0x70(%ebp),%edx
    96ed:	67 66 8d 45 bc       	lea    -0x44(%ebp),%eax
    96f2:	66 89 d1             	mov    %edx,%ecx
    96f5:	66 89 c2             	mov    %eax,%edx
    96f8:	66 b8 10 00 00 00    	mov    $0x10,%eax
    96fe:	66 e8 f7 eb ff ff    	calll  82fb <intcall>
    9704:	67 66 0f b7 45 ac    	movzwl -0x54(%ebp),%eax
    970a:	83 f8 4f             	cmp    $0x4f,%ax
    970d:	75 17                	jne    9726 <vesa_probe+0x87>
    970f:	66 a1 20 c7          	mov    0xc720,%eax
    9713:	66 3d 56 45 53 41    	cmp    $0x41534556,%eax
    9719:	75 0b                	jne    9726 <vesa_probe+0x87>
    971b:	66 0f b7 06 24 c7    	movzwl -0x38dc,%eax
    9721:	3d 01 01             	cmp    $0x101,%ax
    9724:	77 09                	ja     972f <vesa_probe+0x90>
    9726:	66 b8 00 00 00 00    	mov    $0x0,%eax
    972c:	e9 6d 01             	jmp    989c <vesa_probe+0x1fd>
    972f:	66 0f b7 06 30 c7    	movzwl -0x38d0,%eax
    9735:	66 0f b7 c0          	movzwl %ax,%eax
    9739:	66 e8 bc fd ff ff    	calll  94fb <set_fs>
    973f:	66 0f b7 06 2e c7    	movzwl -0x38d2,%eax
    9745:	66 0f b7 c0          	movzwl %ax,%eax
    9749:	67 66 89 45 f4       	mov    %eax,-0xc(%ebp)
    974e:	e9 2b 01             	jmp    987c <vesa_probe+0x1dd>
    9751:	67 66 83 45 f4 02    	addl   $0x2,-0xc(%ebp)
    9757:	66 b8 08 00 00 00    	mov    $0x8,%eax
    975d:	66 e8 44 fd ff ff    	calll  94a7 <heap_free>
    9763:	66 85 c0             	test   %eax,%eax
    9766:	0f 84 2c 01          	je     9896 <vesa_probe+0x1f7>
    976a:	67 66 0f b7 45 ee    	movzwl -0x12(%ebp),%eax
    9770:	66 25 00 fe ff ff    	and    $0xfffffe00,%eax
    9776:	66 85 c0             	test   %eax,%eax
    9779:	74 03                	je     977e <vesa_probe+0xdf>
    977b:	e9 fe 00             	jmp    987c <vesa_probe+0x1dd>
    977e:	66 b9 00 01 00 00    	mov    $0x100,%ecx
    9784:	66 ba 00 00 00 00    	mov    $0x0,%edx
    978a:	66 b8 20 c8 00 00    	mov    $0xc820,%eax
    9790:	66 e8 fd e8 ff ff    	calll  8093 <memset>
    9796:	67 c7 45 d8 01 4f    	movw   $0x4f01,-0x28(%ebp)
    979c:	67 66 0f b7 45 ee    	movzwl -0x12(%ebp),%eax
    97a2:	67 89 45 d4          	mov    %ax,-0x2c(%ebp)
    97a6:	66 b8 20 c8 00 00    	mov    $0xc820,%eax
    97ac:	67 89 45 bc          	mov    %ax,-0x44(%ebp)
    97b0:	67 66 8d 55 90       	lea    -0x70(%ebp),%edx
    97b5:	67 66 8d 45 bc       	lea    -0x44(%ebp),%eax
    97ba:	66 89 d1             	mov    %edx,%ecx
    97bd:	66 89 c2             	mov    %eax,%edx
    97c0:	66 b8 10 00 00 00    	mov    $0x10,%eax
    97c6:	66 e8 2f eb ff ff    	calll  82fb <intcall>
    97cc:	67 66 0f b7 45 ac    	movzwl -0x54(%ebp),%eax
    97d2:	83 f8 4f             	cmp    $0x4f,%ax
    97d5:	74 03                	je     97da <vesa_probe+0x13b>
    97d7:	e9 a2 00             	jmp    987c <vesa_probe+0x1dd>
    97da:	66 0f b7 06 20 c8    	movzwl -0x37e0,%eax
    97e0:	66 0f b7 c0          	movzwl %ax,%eax
    97e4:	66 83 e0 15          	and    $0x15,%eax
    97e8:	66 83 f8 05          	cmp    $0x5,%eax
    97ec:	75 64                	jne    9852 <vesa_probe+0x1b3>
    97ee:	66 b9 01 00 00 00    	mov    $0x1,%ecx
    97f4:	66 ba 02 00 00 00    	mov    $0x2,%edx
    97fa:	66 b8 08 00 00 00    	mov    $0x8,%eax
    9800:	66 e8 3d fc ff ff    	calll  9443 <__get_heap>
    9806:	67 66 89 45 e8       	mov    %eax,-0x18(%ebp)
    980b:	67 66 0f b7 45 ee    	movzwl -0x12(%ebp),%eax
    9811:	67 66 8d 90 00 02 00 	lea    0x200(%eax),%edx
    9818:	00 
    9819:	67 66 8b 45 e8       	mov    -0x18(%ebp),%eax
    981e:	67 89 10             	mov    %dx,(%eax)
    9821:	67 66 8b 45 e8       	mov    -0x18(%ebp),%eax
    9826:	67 c7 40 06 00 00    	movw   $0x0,0x6(%eax)
    982c:	66 0f b7 16 32 c8    	movzwl -0x37ce,%edx
    9832:	67 66 8b 45 e8       	mov    -0x18(%ebp),%eax
    9837:	67 89 50 02          	mov    %dx,0x2(%eax)
    983b:	66 0f b7 16 34 c8    	movzwl -0x37cc,%edx
    9841:	67 66 8b 45 e8       	mov    -0x18(%ebp),%eax
    9846:	67 89 50 04          	mov    %dx,0x4(%eax)
    984a:	67 66 83 45 f0 01    	addl   $0x1,-0x10(%ebp)
    9850:	eb 2a                	jmp    987c <vesa_probe+0x1dd>
    9852:	66 0f b7 06 20 c8    	movzwl -0x37e0,%eax
    9858:	66 0f b7 c0          	movzwl %ax,%eax
    985c:	66 25 99 00 00 00    	and    $0x99,%eax
    9862:	66 3d 99 00 00 00    	cmp    $0x99,%eax
    9868:	75 12                	jne    987c <vesa_probe+0x1dd>
    986a:	66 0f b6 06 3b c8    	movzbl -0x37c5,%eax
    9870:	3c 04                	cmp    $0x4,%al
    9872:	74 08                	je     987c <vesa_probe+0x1dd>
    9874:	66 0f b6 06 3b c8    	movzbl -0x37c5,%eax
    987a:	3c 06                	cmp    $0x6,%al
    987c:	67 66 8b 45 f4       	mov    -0xc(%ebp),%eax
    9881:	66 e8 4f fc ff ff    	calll  94d6 <rdfs16>
    9887:	67 89 45 ee          	mov    %ax,-0x12(%ebp)
    988b:	67 83 7d ee ff       	cmpw   $0xffff,-0x12(%ebp)
    9890:	0f 85 bd fe          	jne    9751 <vesa_probe+0xb2>
    9894:	eb 01                	jmp    9897 <vesa_probe+0x1f8>
    9896:	90                   	nop
    9897:	67 66 8b 45 f0       	mov    -0x10(%ebp),%eax
    989c:	66 c9                	leavel 
    989e:	66 c3                	retl   

000098a0 <vesa_set_mode>:
    98a0:	66 55                	push   %ebp
    98a2:	66 89 e5             	mov    %esp,%ebp
    98a5:	66 83 ec 78          	sub    $0x78,%esp
    98a9:	67 66 89 45 94       	mov    %eax,-0x6c(%ebp)
    98ae:	67 66 8b 45 94       	mov    -0x6c(%ebp),%eax
    98b3:	67 66 0f b7 00       	movzwl (%eax),%eax
    98b8:	2d 00 02             	sub    $0x200,%ax
    98bb:	67 89 45 f6          	mov    %ax,-0xa(%ebp)
    98bf:	66 b9 00 01 00 00    	mov    $0x100,%ecx
    98c5:	66 ba 00 00 00 00    	mov    $0x0,%edx
    98cb:	66 b8 20 c8 00 00    	mov    $0xc820,%eax
    98d1:	66 e8 bc e7 ff ff    	calll  8093 <memset>
    98d7:	67 66 8d 45 c4       	lea    -0x3c(%ebp),%eax
    98dc:	66 e8 8c e9 ff ff    	calll  826e <initregs>
    98e2:	67 c7 45 e0 01 4f    	movw   $0x4f01,-0x20(%ebp)
    98e8:	67 66 0f b7 45 f6    	movzwl -0xa(%ebp),%eax
    98ee:	67 89 45 dc          	mov    %ax,-0x24(%ebp)
    98f2:	66 b8 20 c8 00 00    	mov    $0xc820,%eax
    98f8:	67 89 45 c4          	mov    %ax,-0x3c(%ebp)
    98fc:	67 66 8d 55 98       	lea    -0x68(%ebp),%edx
    9901:	67 66 8d 45 c4       	lea    -0x3c(%ebp),%eax
    9906:	66 89 d1             	mov    %edx,%ecx
    9909:	66 89 c2             	mov    %eax,%edx
    990c:	66 b8 10 00 00 00    	mov    $0x10,%eax
    9912:	66 e8 e3 e9 ff ff    	calll  82fb <intcall>
    9918:	67 66 0f b7 45 b4    	movzwl -0x4c(%ebp),%eax
    991e:	83 f8 4f             	cmp    $0x4f,%ax
    9921:	74 09                	je     992c <vesa_set_mode+0x8c>
    9923:	66 b8 ff ff ff ff    	mov    $0xffffffff,%eax
    9929:	e9 bf 00             	jmp    99eb <vesa_set_mode+0x14b>
    992c:	66 0f b7 06 20 c8    	movzwl -0x37e0,%eax
    9932:	66 0f b7 c0          	movzwl %ax,%eax
    9936:	66 83 e0 15          	and    $0x15,%eax
    993a:	66 83 f8 05          	cmp    $0x5,%eax
    993e:	75 4d                	jne    998d <vesa_set_mode+0xed>
    9940:	67 66 c7 45 f0 00 00 	movl   $0x0,-0x10(%ebp)
    9947:	00 00 
    9949:	67 66 8d 45 c4       	lea    -0x3c(%ebp),%eax
    994e:	66 e8 1a e9 ff ff    	calll  826e <initregs>
    9954:	67 c7 45 e0 02 4f    	movw   $0x4f02,-0x20(%ebp)
    995a:	67 66 0f b7 45 f6    	movzwl -0xa(%ebp),%eax
    9960:	67 89 45 d4          	mov    %ax,-0x2c(%ebp)
    9964:	67 66 8d 55 98       	lea    -0x68(%ebp),%edx
    9969:	67 66 8d 45 c4       	lea    -0x3c(%ebp),%eax
    996e:	66 89 d1             	mov    %edx,%ecx
    9971:	66 89 c2             	mov    %eax,%edx
    9974:	66 b8 10 00 00 00    	mov    $0x10,%eax
    997a:	66 e8 7b e9 ff ff    	calll  82fb <intcall>
    9980:	67 66 0f b7 45 b4    	movzwl -0x4c(%ebp),%eax
    9986:	83 f8 4f             	cmp    $0x4f,%ax
    9989:	74 12                	je     999d <vesa_set_mode+0xfd>
    998b:	eb 08                	jmp    9995 <vesa_set_mode+0xf5>
    998d:	66 b8 ff ff ff ff    	mov    $0xffffffff,%eax
    9993:	eb 56                	jmp    99eb <vesa_set_mode+0x14b>
    9995:	66 b8 ff ff ff ff    	mov    $0xffffffff,%eax
    999b:	eb 4e                	jmp    99eb <vesa_set_mode+0x14b>
    999d:	67 66 8b 45 f0       	mov    -0x10(%ebp),%eax
    99a2:	66 a3 0c d6          	mov    %eax,0xd60c
    99a6:	67 66 83 7d f0 00    	cmpl   $0x0,-0x10(%ebp)
    99ac:	75 31                	jne    99df <vesa_set_mode+0x13f>
    99ae:	67 66 8b 45 94       	mov    -0x6c(%ebp),%eax
    99b3:	67 66 0f b7 40 02    	movzwl 0x2(%eax),%eax
    99b9:	66 0f b7 c0          	movzwl %ax,%eax
    99bd:	66 a3 08 d6          	mov    %eax,0xd608
    99c1:	67 66 8b 45 94       	mov    -0x6c(%ebp),%eax
    99c6:	67 66 0f b7 40 04    	movzwl 0x4(%eax),%eax
    99cc:	66 0f b7 c0          	movzwl %ax,%eax
    99d0:	66 a3 04 d6          	mov    %eax,0xd604
    99d4:	66 c7 06 f8 d5 01 00 	movl   $0x1,-0x2a08
    99db:	00 00 
    99dd:	eb 06                	jmp    99e5 <vesa_set_mode+0x145>
    99df:	66 e8 25 fc ff ff    	calll  960a <vesa_store_mode_params_graphics>
    99e5:	66 b8 00 00 00 00    	mov    $0x0,%eax
    99eb:	66 c9                	leavel 
    99ed:	66 c3                	retl   

000099ef <outb>:
    99ef:	66 55                	push   %ebp
    99f1:	66 89 e5             	mov    %esp,%ebp
    99f4:	66 83 ec 08          	sub    $0x8,%esp
    99f8:	66 89 c1             	mov    %eax,%ecx
    99fb:	66 89 d0             	mov    %edx,%eax
    99fe:	67 88 4d fc          	mov    %cl,-0x4(%ebp)
    9a02:	67 89 45 f8          	mov    %ax,-0x8(%ebp)
    9a06:	67 66 0f b6 45 fc    	movzbl -0x4(%ebp),%eax
    9a0c:	67 66 0f b7 55 f8    	movzwl -0x8(%ebp),%edx
    9a12:	ee                   	out    %al,(%dx)
    9a13:	90                   	nop
    9a14:	66 c9                	leavel 
    9a16:	66 c3                	retl   

00009a18 <inb>:
    9a18:	66 55                	push   %ebp
    9a1a:	66 89 e5             	mov    %esp,%ebp
    9a1d:	66 83 ec 14          	sub    $0x14,%esp
    9a21:	67 89 45 ec          	mov    %ax,-0x14(%ebp)
    9a25:	67 66 0f b7 45 ec    	movzwl -0x14(%ebp),%eax
    9a2b:	66 89 c2             	mov    %eax,%edx
    9a2e:	ec                   	in     (%dx),%al
    9a2f:	67 88 45 ff          	mov    %al,-0x1(%ebp)
    9a33:	67 66 0f b6 45 ff    	movzbl -0x1(%ebp),%eax
    9a39:	66 c9                	leavel 
    9a3b:	66 c3                	retl   

00009a3d <outw>:
    9a3d:	66 55                	push   %ebp
    9a3f:	66 89 e5             	mov    %esp,%ebp
    9a42:	66 83 ec 08          	sub    $0x8,%esp
    9a46:	66 89 c1             	mov    %eax,%ecx
    9a49:	66 89 d0             	mov    %edx,%eax
    9a4c:	67 89 4d fc          	mov    %cx,-0x4(%ebp)
    9a50:	67 89 45 f8          	mov    %ax,-0x8(%ebp)
    9a54:	67 66 0f b7 45 fc    	movzwl -0x4(%ebp),%eax
    9a5a:	67 66 0f b7 55 f8    	movzwl -0x8(%ebp),%edx
    9a60:	ef                   	out    %ax,(%dx)
    9a61:	90                   	nop
    9a62:	66 c9                	leavel 
    9a64:	66 c3                	retl   

00009a66 <out_idx>:
    9a66:	66 55                	push   %ebp
    9a68:	66 89 e5             	mov    %esp,%ebp
    9a6b:	66 53                	push   %ebx
    9a6d:	66 83 ec 0c          	sub    $0xc,%esp
    9a71:	66 89 c3             	mov    %eax,%ebx
    9a74:	66 89 c8             	mov    %ecx,%eax
    9a77:	67 88 5d f8          	mov    %bl,-0x8(%ebp)
    9a7b:	67 89 55 f4          	mov    %dx,-0xc(%ebp)
    9a7f:	67 88 45 f0          	mov    %al,-0x10(%ebp)
    9a83:	67 66 0f b7 55 f4    	movzwl -0xc(%ebp),%edx
    9a89:	67 66 0f b6 45 f0    	movzbl -0x10(%ebp),%eax
    9a8f:	67 66 0f b6 4d f8    	movzbl -0x8(%ebp),%ecx
    9a95:	66 c1 e1 08          	shl    $0x8,%ecx
    9a99:	66 01 c8             	add    %ecx,%eax
    9a9c:	66 0f b7 c0          	movzwl %ax,%eax
    9aa0:	66 e8 97 ff ff ff    	calll  9a3d <outw>
    9aa6:	90                   	nop
    9aa7:	66 83 c4 0c          	add    $0xc,%esp
    9aab:	66 5b                	pop    %ebx
    9aad:	66 5d                	pop    %ebp
    9aaf:	66 c3                	retl   

00009ab1 <vga_set_basic_mode>:
    9ab1:	66 55                	push   %ebp
    9ab3:	66 89 e5             	mov    %esp,%ebp
    9ab6:	66 83 ec 68          	sub    $0x68,%esp
    9aba:	67 66 8d 45 c8       	lea    -0x38(%ebp),%eax
    9abf:	66 e8 a9 e7 ff ff    	calll  826e <initregs>
    9ac5:	67 c7 45 e4 00 0f    	movw   $0xf00,-0x1c(%ebp)
    9acb:	67 66 8d 55 9c       	lea    -0x64(%ebp),%edx
    9ad0:	67 66 8d 45 c8       	lea    -0x38(%ebp),%eax
    9ad5:	66 89 d1             	mov    %edx,%ecx
    9ad8:	66 89 c2             	mov    %eax,%edx
    9adb:	66 b8 10 00 00 00    	mov    $0x10,%eax
    9ae1:	66 e8 14 e8 ff ff    	calll  82fb <intcall>
    9ae7:	67 66 0f b6 45 b8    	movzbl -0x48(%ebp),%eax
    9aed:	67 88 45 f7          	mov    %al,-0x9(%ebp)
    9af1:	67 80 7d f7 03       	cmpb   $0x3,-0x9(%ebp)
    9af6:	74 0c                	je     9b04 <vga_set_basic_mode+0x53>
    9af8:	67 80 7d f7 07       	cmpb   $0x7,-0x9(%ebp)
    9afd:	74 05                	je     9b04 <vga_set_basic_mode+0x53>
    9aff:	67 c6 45 f7 03       	movb   $0x3,-0x9(%ebp)
    9b04:	67 66 0f b6 45 f7    	movzbl -0x9(%ebp),%eax
    9b0a:	67 89 45 e4          	mov    %ax,-0x1c(%ebp)
    9b0e:	67 66 8d 45 c8       	lea    -0x38(%ebp),%eax
    9b13:	66 b9 00 00 00 00    	mov    $0x0,%ecx
    9b19:	66 89 c2             	mov    %eax,%edx
    9b1c:	66 b8 10 00 00 00    	mov    $0x10,%eax
    9b22:	66 e8 d3 e7 ff ff    	calll  82fb <intcall>
    9b28:	66 c7 06 f8 d5 01 00 	movl   $0x1,-0x2a08
    9b2f:	00 00 
    9b31:	67 66 0f b6 45 f7    	movzbl -0x9(%ebp),%eax
    9b37:	66 c9                	leavel 
    9b39:	66 c3                	retl   

00009b3b <vga_set_8font>:
    9b3b:	66 55                	push   %ebp
    9b3d:	66 89 e5             	mov    %esp,%ebp
    9b40:	66 83 ec 38          	sub    $0x38,%esp
    9b44:	67 66 8d 45 cc       	lea    -0x34(%ebp),%eax
    9b49:	66 e8 1f e7 ff ff    	calll  826e <initregs>
    9b4f:	67 c7 45 e8 12 11    	movw   $0x1112,-0x18(%ebp)
    9b55:	67 66 8d 45 cc       	lea    -0x34(%ebp),%eax
    9b5a:	66 b9 00 00 00 00    	mov    $0x0,%ecx
    9b60:	66 89 c2             	mov    %eax,%edx
    9b63:	66 b8 10 00 00 00    	mov    $0x10,%eax
    9b69:	66 e8 8c e7 ff ff    	calll  82fb <intcall>
    9b6f:	67 c7 45 e8 00 12    	movw   $0x1200,-0x18(%ebp)
    9b75:	67 c6 45 dc 20       	movb   $0x20,-0x24(%ebp)
    9b7a:	67 66 8d 45 cc       	lea    -0x34(%ebp),%eax
    9b7f:	66 b9 00 00 00 00    	mov    $0x0,%ecx
    9b85:	66 89 c2             	mov    %eax,%edx
    9b88:	66 b8 10 00 00 00    	mov    $0x10,%eax
    9b8e:	66 e8 67 e7 ff ff    	calll  82fb <intcall>
    9b94:	67 c7 45 e8 01 12    	movw   $0x1201,-0x18(%ebp)
    9b9a:	67 c6 45 dc 34       	movb   $0x34,-0x24(%ebp)
    9b9f:	67 66 8d 45 cc       	lea    -0x34(%ebp),%eax
    9ba4:	66 b9 00 00 00 00    	mov    $0x0,%ecx
    9baa:	66 89 c2             	mov    %eax,%edx
    9bad:	66 b8 10 00 00 00    	mov    $0x10,%eax
    9bb3:	66 e8 42 e7 ff ff    	calll  82fb <intcall>
    9bb9:	67 c7 45 e8 00 01    	movw   $0x100,-0x18(%ebp)
    9bbf:	67 c7 45 e4 07 06    	movw   $0x607,-0x1c(%ebp)
    9bc5:	67 66 8d 45 cc       	lea    -0x34(%ebp),%eax
    9bca:	66 b9 00 00 00 00    	mov    $0x0,%ecx
    9bd0:	66 89 c2             	mov    %eax,%edx
    9bd3:	66 b8 10 00 00 00    	mov    $0x10,%eax
    9bd9:	66 e8 1c e7 ff ff    	calll  82fb <intcall>
    9bdf:	90                   	nop
    9be0:	66 c9                	leavel 
    9be2:	66 c3                	retl   

00009be4 <vga_set_14font>:
    9be4:	66 55                	push   %ebp
    9be6:	66 89 e5             	mov    %esp,%ebp
    9be9:	66 83 ec 38          	sub    $0x38,%esp
    9bed:	67 66 8d 45 cc       	lea    -0x34(%ebp),%eax
    9bf2:	66 e8 76 e6 ff ff    	calll  826e <initregs>
    9bf8:	67 c7 45 e8 11 11    	movw   $0x1111,-0x18(%ebp)
    9bfe:	67 66 8d 45 cc       	lea    -0x34(%ebp),%eax
    9c03:	66 b9 00 00 00 00    	mov    $0x0,%ecx
    9c09:	66 89 c2             	mov    %eax,%edx
    9c0c:	66 b8 10 00 00 00    	mov    $0x10,%eax
    9c12:	66 e8 e3 e6 ff ff    	calll  82fb <intcall>
    9c18:	67 c7 45 e8 01 12    	movw   $0x1201,-0x18(%ebp)
    9c1e:	67 c6 45 dc 34       	movb   $0x34,-0x24(%ebp)
    9c23:	67 66 8d 45 cc       	lea    -0x34(%ebp),%eax
    9c28:	66 b9 00 00 00 00    	mov    $0x0,%ecx
    9c2e:	66 89 c2             	mov    %eax,%edx
    9c31:	66 b8 10 00 00 00    	mov    $0x10,%eax
    9c37:	66 e8 be e6 ff ff    	calll  82fb <intcall>
    9c3d:	67 c7 45 e8 00 01    	movw   $0x100,-0x18(%ebp)
    9c43:	67 c7 45 e4 0c 0b    	movw   $0xb0c,-0x1c(%ebp)
    9c49:	67 66 8d 45 cc       	lea    -0x34(%ebp),%eax
    9c4e:	66 b9 00 00 00 00    	mov    $0x0,%ecx
    9c54:	66 89 c2             	mov    %eax,%edx
    9c57:	66 b8 10 00 00 00    	mov    $0x10,%eax
    9c5d:	66 e8 98 e6 ff ff    	calll  82fb <intcall>
    9c63:	90                   	nop
    9c64:	66 c9                	leavel 
    9c66:	66 c3                	retl   

00009c68 <vga_set_80x43>:
    9c68:	66 55                	push   %ebp
    9c6a:	66 89 e5             	mov    %esp,%ebp
    9c6d:	66 83 ec 38          	sub    $0x38,%esp
    9c71:	67 66 8d 45 cc       	lea    -0x34(%ebp),%eax
    9c76:	66 e8 f2 e5 ff ff    	calll  826e <initregs>
    9c7c:	67 c7 45 e8 01 12    	movw   $0x1201,-0x18(%ebp)
    9c82:	67 c6 45 dc 30       	movb   $0x30,-0x24(%ebp)
    9c87:	67 66 8d 45 cc       	lea    -0x34(%ebp),%eax
    9c8c:	66 b9 00 00 00 00    	mov    $0x0,%ecx
    9c92:	66 89 c2             	mov    %eax,%edx
    9c95:	66 b8 10 00 00 00    	mov    $0x10,%eax
    9c9b:	66 e8 5a e6 ff ff    	calll  82fb <intcall>
    9ca1:	67 c7 45 e8 03 00    	movw   $0x3,-0x18(%ebp)
    9ca7:	67 66 8d 45 cc       	lea    -0x34(%ebp),%eax
    9cac:	66 b9 00 00 00 00    	mov    $0x0,%ecx
    9cb2:	66 89 c2             	mov    %eax,%edx
    9cb5:	66 b8 10 00 00 00    	mov    $0x10,%eax
    9cbb:	66 e8 3a e6 ff ff    	calll  82fb <intcall>
    9cc1:	66 e8 74 fe ff ff    	calll  9b3b <vga_set_8font>
    9cc7:	90                   	nop
    9cc8:	66 c9                	leavel 
    9cca:	66 c3                	retl   

00009ccc <vga_crtc>:
    9ccc:	66 55                	push   %ebp
    9cce:	66 89 e5             	mov    %esp,%ebp
    9cd1:	66 b8 cc 03 00 00    	mov    $0x3cc,%eax
    9cd7:	66 e8 3b fd ff ff    	calll  9a18 <inb>
    9cdd:	66 0f b6 c0          	movzbl %al,%eax
    9ce1:	66 83 e0 01          	and    $0x1,%eax
    9ce5:	66 85 c0             	test   %eax,%eax
    9ce8:	74 08                	je     9cf2 <vga_crtc+0x26>
    9cea:	66 b8 d4 03 00 00    	mov    $0x3d4,%eax
    9cf0:	eb 06                	jmp    9cf8 <vga_crtc+0x2c>
    9cf2:	66 b8 b4 03 00 00    	mov    $0x3b4,%eax
    9cf8:	66 5d                	pop    %ebp
    9cfa:	66 c3                	retl   

00009cfc <vga_set_480_scanlines>:
    9cfc:	66 55                	push   %ebp
    9cfe:	66 89 e5             	mov    %esp,%ebp
    9d01:	66 83 ec 10          	sub    $0x10,%esp
    9d05:	66 e8 c1 ff ff ff    	calll  9ccc <vga_crtc>
    9d0b:	67 89 45 fe          	mov    %ax,-0x2(%ebp)
    9d0f:	67 66 0f b7 45 fe    	movzwl -0x2(%ebp),%eax
    9d15:	66 b9 11 00 00 00    	mov    $0x11,%ecx
    9d1b:	66 89 c2             	mov    %eax,%edx
    9d1e:	66 b8 0c 00 00 00    	mov    $0xc,%eax
    9d24:	66 e8 3c fd ff ff    	calll  9a66 <out_idx>
    9d2a:	67 66 0f b7 45 fe    	movzwl -0x2(%ebp),%eax
    9d30:	66 b9 06 00 00 00    	mov    $0x6,%ecx
    9d36:	66 89 c2             	mov    %eax,%edx
    9d39:	66 b8 0b 00 00 00    	mov    $0xb,%eax
    9d3f:	66 e8 21 fd ff ff    	calll  9a66 <out_idx>
    9d45:	67 66 0f b7 45 fe    	movzwl -0x2(%ebp),%eax
    9d4b:	66 b9 07 00 00 00    	mov    $0x7,%ecx
    9d51:	66 89 c2             	mov    %eax,%edx
    9d54:	66 b8 3e 00 00 00    	mov    $0x3e,%eax
    9d5a:	66 e8 06 fd ff ff    	calll  9a66 <out_idx>
    9d60:	67 66 0f b7 45 fe    	movzwl -0x2(%ebp),%eax
    9d66:	66 b9 10 00 00 00    	mov    $0x10,%ecx
    9d6c:	66 89 c2             	mov    %eax,%edx
    9d6f:	66 b8 ea 00 00 00    	mov    $0xea,%eax
    9d75:	66 e8 eb fc ff ff    	calll  9a66 <out_idx>
    9d7b:	67 66 0f b7 45 fe    	movzwl -0x2(%ebp),%eax
    9d81:	66 b9 12 00 00 00    	mov    $0x12,%ecx
    9d87:	66 89 c2             	mov    %eax,%edx
    9d8a:	66 b8 df 00 00 00    	mov    $0xdf,%eax
    9d90:	66 e8 d0 fc ff ff    	calll  9a66 <out_idx>
    9d96:	67 66 0f b7 45 fe    	movzwl -0x2(%ebp),%eax
    9d9c:	66 b9 15 00 00 00    	mov    $0x15,%ecx
    9da2:	66 89 c2             	mov    %eax,%edx
    9da5:	66 b8 e7 00 00 00    	mov    $0xe7,%eax
    9dab:	66 e8 b5 fc ff ff    	calll  9a66 <out_idx>
    9db1:	67 66 0f b7 45 fe    	movzwl -0x2(%ebp),%eax
    9db7:	66 b9 16 00 00 00    	mov    $0x16,%ecx
    9dbd:	66 89 c2             	mov    %eax,%edx
    9dc0:	66 b8 04 00 00 00    	mov    $0x4,%eax
    9dc6:	66 e8 9a fc ff ff    	calll  9a66 <out_idx>
    9dcc:	66 b8 cc 03 00 00    	mov    $0x3cc,%eax
    9dd2:	66 e8 40 fc ff ff    	calll  9a18 <inb>
    9dd8:	67 88 45 fd          	mov    %al,-0x3(%ebp)
    9ddc:	67 80 65 fd 0d       	andb   $0xd,-0x3(%ebp)
    9de1:	67 80 4d fd e2       	orb    $0xe2,-0x3(%ebp)
    9de6:	67 66 0f b6 45 fd    	movzbl -0x3(%ebp),%eax
    9dec:	66 ba c2 03 00 00    	mov    $0x3c2,%edx
    9df2:	66 e8 f7 fb ff ff    	calll  99ef <outb>
    9df8:	90                   	nop
    9df9:	66 c9                	leavel 
    9dfb:	66 c3                	retl   

00009dfd <vga_set_vertical_end>:
    9dfd:	66 55                	push   %ebp
    9dff:	66 89 e5             	mov    %esp,%ebp
    9e02:	66 83 ec 14          	sub    $0x14,%esp
    9e06:	67 66 89 45 ec       	mov    %eax,-0x14(%ebp)
    9e0b:	67 66 8b 45 ec       	mov    -0x14(%ebp),%eax
    9e10:	66 83 e8 01          	sub    $0x1,%eax
    9e14:	67 66 89 45 fc       	mov    %eax,-0x4(%ebp)
    9e19:	66 e8 ad fe ff ff    	calll  9ccc <vga_crtc>
    9e1f:	67 89 45 fa          	mov    %ax,-0x6(%ebp)
    9e23:	67 66 8b 45 fc       	mov    -0x4(%ebp),%eax
    9e28:	66 c1 f8 07          	sar    $0x7,%eax
    9e2c:	66 83 e0 02          	and    $0x2,%eax
    9e30:	66 83 c8 3c          	or     $0x3c,%eax
    9e34:	66 89 c2             	mov    %eax,%edx
    9e37:	67 66 8b 45 fc       	mov    -0x4(%ebp),%eax
    9e3c:	66 c1 f8 03          	sar    $0x3,%eax
    9e40:	66 83 e0 40          	and    $0x40,%eax
    9e44:	66 09 d0             	or     %edx,%eax
    9e47:	67 88 45 f9          	mov    %al,-0x7(%ebp)
    9e4b:	67 66 0f b7 55 fa    	movzwl -0x6(%ebp),%edx
    9e51:	67 66 0f b6 45 f9    	movzbl -0x7(%ebp),%eax
    9e57:	66 b9 07 00 00 00    	mov    $0x7,%ecx
    9e5d:	66 e8 03 fc ff ff    	calll  9a66 <out_idx>
    9e63:	67 66 0f b7 55 fa    	movzwl -0x6(%ebp),%edx
    9e69:	67 66 8b 45 fc       	mov    -0x4(%ebp),%eax
    9e6e:	66 0f b6 c0          	movzbl %al,%eax
    9e72:	66 b9 12 00 00 00    	mov    $0x12,%ecx
    9e78:	66 e8 e8 fb ff ff    	calll  9a66 <out_idx>
    9e7e:	90                   	nop
    9e7f:	66 c9                	leavel 
    9e81:	66 c3                	retl   

00009e83 <vga_set_80x30>:
    9e83:	66 55                	push   %ebp
    9e85:	66 89 e5             	mov    %esp,%ebp
    9e88:	66 e8 6e fe ff ff    	calll  9cfc <vga_set_480_scanlines>
    9e8e:	66 b8 e0 01 00 00    	mov    $0x1e0,%eax
    9e94:	66 e8 63 ff ff ff    	calll  9dfd <vga_set_vertical_end>
    9e9a:	90                   	nop
    9e9b:	66 5d                	pop    %ebp
    9e9d:	66 c3                	retl   

00009e9f <vga_set_80x34>:
    9e9f:	66 55                	push   %ebp
    9ea1:	66 89 e5             	mov    %esp,%ebp
    9ea4:	66 83 ec 08          	sub    $0x8,%esp
    9ea8:	66 e8 4e fe ff ff    	calll  9cfc <vga_set_480_scanlines>
    9eae:	66 e8 30 fd ff ff    	calll  9be4 <vga_set_14font>
    9eb4:	66 b8 dc 01 00 00    	mov    $0x1dc,%eax
    9eba:	66 e8 3d ff ff ff    	calll  9dfd <vga_set_vertical_end>
    9ec0:	90                   	nop
    9ec1:	66 c9                	leavel 
    9ec3:	66 c3                	retl   

00009ec5 <vga_set_80x60>:
    9ec5:	66 55                	push   %ebp
    9ec7:	66 89 e5             	mov    %esp,%ebp
    9eca:	66 83 ec 08          	sub    $0x8,%esp
    9ece:	66 e8 28 fe ff ff    	calll  9cfc <vga_set_480_scanlines>
    9ed4:	66 e8 61 fc ff ff    	calll  9b3b <vga_set_8font>
    9eda:	66 b8 e0 01 00 00    	mov    $0x1e0,%eax
    9ee0:	66 e8 17 ff ff ff    	calll  9dfd <vga_set_vertical_end>
    9ee6:	90                   	nop
    9ee7:	66 c9                	leavel 
    9ee9:	66 c3                	retl   

00009eeb <vga_set_mode>:
    9eeb:	66 55                	push   %ebp
    9eed:	66 89 e5             	mov    %esp,%ebp
    9ef0:	66 83 ec 18          	sub    $0x18,%esp
    9ef4:	67 66 89 45 f4       	mov    %eax,-0xc(%ebp)
    9ef9:	66 e8 b2 fb ff ff    	calll  9ab1 <vga_set_basic_mode>
    9eff:	67 66 8b 45 f4       	mov    -0xc(%ebp),%eax
    9f04:	67 66 0f b7 40 02    	movzwl 0x2(%eax),%eax
    9f0a:	66 0f b7 c0          	movzwl %ax,%eax
    9f0e:	66 a3 08 d6          	mov    %eax,0xd608
    9f12:	67 66 8b 45 f4       	mov    -0xc(%ebp),%eax
    9f17:	67 66 0f b7 40 04    	movzwl 0x4(%eax),%eax
    9f1d:	66 0f b7 c0          	movzwl %ax,%eax
    9f21:	66 a3 04 d6          	mov    %eax,0xd604
    9f25:	67 66 8b 45 f4       	mov    -0xc(%ebp),%eax
    9f2a:	67 66 0f b7 00       	movzwl (%eax),%eax
    9f2f:	66 0f b7 c0          	movzwl %ax,%eax
    9f33:	66 2d 00 0f 00 00    	sub    $0xf00,%eax
    9f39:	66 83 f8 07          	cmp    $0x7,%eax
    9f3d:	77 3b                	ja     9f7a <vga_set_mode+0x8f>
    9f3f:	67 66 8b 04 85 34 b6 	mov    0xb634(,%eax,4),%eax
    9f46:	00 00 
    9f48:	66 ff e0             	jmpl   *%eax
    9f4b:	66 e8 ea fb ff ff    	calll  9b3b <vga_set_8font>
    9f51:	eb 27                	jmp    9f7a <vga_set_mode+0x8f>
    9f53:	66 e8 0f fd ff ff    	calll  9c68 <vga_set_80x43>
    9f59:	eb 1f                	jmp    9f7a <vga_set_mode+0x8f>
    9f5b:	66 e8 83 fc ff ff    	calll  9be4 <vga_set_14font>
    9f61:	eb 17                	jmp    9f7a <vga_set_mode+0x8f>
    9f63:	66 e8 1a ff ff ff    	calll  9e83 <vga_set_80x30>
    9f69:	eb 0f                	jmp    9f7a <vga_set_mode+0x8f>
    9f6b:	66 e8 2e ff ff ff    	calll  9e9f <vga_set_80x34>
    9f71:	eb 07                	jmp    9f7a <vga_set_mode+0x8f>
    9f73:	66 e8 4c ff ff ff    	calll  9ec5 <vga_set_80x60>
    9f79:	90                   	nop
    9f7a:	66 b8 00 00 00 00    	mov    $0x0,%eax
    9f80:	66 c9                	leavel 
    9f82:	66 c3                	retl   

00009f84 <vga_probe>:
    9f84:	66 55                	push   %ebp
    9f86:	66 89 e5             	mov    %esp,%ebp
    9f89:	66 83 ec 68          	sub    $0x68,%esp
    9f8d:	67 66 8d 45 cc       	lea    -0x34(%ebp),%eax
    9f92:	66 e8 d6 e2 ff ff    	calll  826e <initregs>
    9f98:	67 c7 45 e8 00 12    	movw   $0x1200,-0x18(%ebp)
    9f9e:	67 c6 45 dc 10       	movb   $0x10,-0x24(%ebp)
    9fa3:	67 66 8d 55 a0       	lea    -0x60(%ebp),%edx
    9fa8:	67 66 8d 45 cc       	lea    -0x34(%ebp),%eax
    9fad:	66 89 d1             	mov    %edx,%ecx
    9fb0:	66 89 c2             	mov    %eax,%edx
    9fb3:	66 b8 10 00 00 00    	mov    $0x10,%eax
    9fb9:	66 e8 3c e3 ff ff    	calll  82fb <intcall>
    9fbf:	67 66 0f b7 45 b0    	movzwl -0x50(%ebp),%eax
    9fc5:	a3 c1 d5             	mov    %ax,0xd5c1
    9fc8:	67 66 0f b6 45 b0    	movzbl -0x50(%ebp),%eax
    9fce:	3c 10                	cmp    $0x10,%al
    9fd0:	74 47                	je     a019 <vga_probe+0x95>
    9fd2:	67 c7 45 e8 00 1a    	movw   $0x1a00,-0x18(%ebp)
    9fd8:	67 66 8d 55 a0       	lea    -0x60(%ebp),%edx
    9fdd:	67 66 8d 45 cc       	lea    -0x34(%ebp),%eax
    9fe2:	66 89 d1             	mov    %edx,%ecx
    9fe5:	66 89 c2             	mov    %eax,%edx
    9fe8:	66 b8 10 00 00 00    	mov    $0x10,%eax
    9fee:	66 e8 07 e3 ff ff    	calll  82fb <intcall>
    9ff4:	67 66 0f b6 45 bc    	movzbl -0x44(%ebp),%eax
    9ffa:	3c 1a                	cmp    $0x1a,%al
    9ffc:	75 10                	jne    a00e <vga_probe+0x8a>
    9ffe:	66 c7 06 00 d6 02 00 	movl   $0x2,-0x2a00
    a005:	00 00 
    a007:	c6 06 c6 d5 01       	movb   $0x1,-0x2a3a
    a00c:	eb 14                	jmp    a022 <vga_probe+0x9e>
    a00e:	66 c7 06 00 d6 01 00 	movl   $0x1,-0x2a00
    a015:	00 00 
    a017:	eb 09                	jmp    a022 <vga_probe+0x9e>
    a019:	66 c7 06 00 d6 00 00 	movl   $0x0,-0x2a00
    a020:	00 00 
    a022:	66 a1 00 d6          	mov    0xd600,%eax
    a026:	67 66 8b 04 85 d0 c6 	mov    0xc6d0(,%eax,4),%eax
    a02d:	00 00 
    a02f:	66 a3 18 c6          	mov    %eax,0xc618
    a033:	66 a1 00 d6          	mov    0xd600,%eax
    a037:	67 66 8b 04 85 dc c6 	mov    0xc6dc(,%eax,4),%eax
    a03e:	00 00 
    a040:	66 a3 0c c6          	mov    %eax,0xc60c
    a044:	66 a1 00 d6          	mov    0xd600,%eax
    a048:	67 66 8b 04 85 e8 c6 	mov    0xc6e8(,%eax,4),%eax
    a04f:	00 00 
    a051:	66 c9                	leavel 
    a053:	66 c3                	retl   

0000a055 <__get_heap>:
    a055:	66 55                	push   %ebp
    a057:	66 89 e5             	mov    %esp,%ebp
    a05a:	66 83 ec 1c          	sub    $0x1c,%esp
    a05e:	67 66 89 45 ec       	mov    %eax,-0x14(%ebp)
    a063:	67 66 89 55 e8       	mov    %edx,-0x18(%ebp)
    a068:	67 66 89 4d e4       	mov    %ecx,-0x1c(%ebp)
    a06d:	66 a1 60 c6          	mov    0xc660,%eax
    a071:	66 89 c2             	mov    %eax,%edx
    a074:	67 66 8b 45 e8       	mov    -0x18(%ebp),%eax
    a079:	66 01 d0             	add    %edx,%eax
    a07c:	67 66 8d 50 ff       	lea    -0x1(%eax),%edx
    a081:	67 66 8b 45 e8       	mov    -0x18(%ebp),%eax
    a086:	66 f7 d8             	neg    %eax
    a089:	66 21 d0             	and    %edx,%eax
    a08c:	66 a3 60 c6          	mov    %eax,0xc660
    a090:	66 a1 60 c6          	mov    0xc660,%eax
    a094:	67 66 89 45 fc       	mov    %eax,-0x4(%ebp)
    a099:	66 8b 16 60 c6       	mov    -0x39a0,%edx
    a09e:	67 66 8b 45 ec       	mov    -0x14(%ebp),%eax
    a0a3:	67 66 0f af 45 e4    	imul   -0x1c(%ebp),%eax
    a0a9:	66 01 d0             	add    %edx,%eax
    a0ac:	66 a3 60 c6          	mov    %eax,0xc660
    a0b0:	67 66 8b 45 fc       	mov    -0x4(%ebp),%eax
    a0b5:	66 c9                	leavel 
    a0b7:	66 c3                	retl   

0000a0b9 <heap_free>:
    a0b9:	66 55                	push   %ebp
    a0bb:	66 89 e5             	mov    %esp,%ebp
    a0be:	66 83 ec 04          	sub    $0x4,%esp
    a0c2:	67 66 89 45 fc       	mov    %eax,-0x4(%ebp)
    a0c7:	66 a1 64 c6          	mov    0xc664,%eax
    a0cb:	66 89 c2             	mov    %eax,%edx
    a0ce:	66 a1 60 c6          	mov    0xc660,%eax
    a0d2:	66 29 c2             	sub    %eax,%edx
    a0d5:	67 66 8b 45 fc       	mov    -0x4(%ebp),%eax
    a0da:	66 39 c2             	cmp    %eax,%edx
    a0dd:	0f 9d c0             	setge  %al
    a0e0:	66 0f b6 c0          	movzbl %al,%eax
    a0e4:	66 c9                	leavel 
    a0e6:	66 c3                	retl   

0000a0e8 <rdfs16>:
    a0e8:	66 55                	push   %ebp
    a0ea:	66 89 e5             	mov    %esp,%ebp
    a0ed:	66 83 ec 14          	sub    $0x14,%esp
    a0f1:	67 66 89 45 ec       	mov    %eax,-0x14(%ebp)
    a0f6:	67 66 8b 45 ec       	mov    -0x14(%ebp),%eax
    a0fb:	64 67 8b 00          	mov    %fs:(%eax),%ax
    a0ff:	67 89 45 fe          	mov    %ax,-0x2(%ebp)
    a103:	67 66 0f b7 45 fe    	movzwl -0x2(%ebp),%eax
    a109:	66 c9                	leavel 
    a10b:	66 c3                	retl   

0000a10d <rdfs8>:
    a10d:	66 55                	push   %ebp
    a10f:	66 89 e5             	mov    %esp,%ebp
    a112:	66 83 ec 14          	sub    $0x14,%esp
    a116:	67 66 89 45 ec       	mov    %eax,-0x14(%ebp)
    a11b:	67 66 8b 45 ec       	mov    -0x14(%ebp),%eax
    a120:	64 67 8a 00          	mov    %fs:(%eax),%al
    a124:	67 88 45 ff          	mov    %al,-0x1(%ebp)
    a128:	67 66 0f b6 45 ff    	movzbl -0x1(%ebp),%eax
    a12e:	66 c9                	leavel 
    a130:	66 c3                	retl   

0000a132 <outb>:
    a132:	66 55                	push   %ebp
    a134:	66 89 e5             	mov    %esp,%ebp
    a137:	66 83 ec 08          	sub    $0x8,%esp
    a13b:	66 89 c1             	mov    %eax,%ecx
    a13e:	66 89 d0             	mov    %edx,%eax
    a141:	67 88 4d fc          	mov    %cl,-0x4(%ebp)
    a145:	67 89 45 f8          	mov    %ax,-0x8(%ebp)
    a149:	67 66 0f b6 45 fc    	movzbl -0x4(%ebp),%eax
    a14f:	67 66 0f b7 55 f8    	movzwl -0x8(%ebp),%edx
    a155:	ee                   	out    %al,(%dx)
    a156:	90                   	nop
    a157:	66 c9                	leavel 
    a159:	66 c3                	retl   

0000a15b <inb>:
    a15b:	66 55                	push   %ebp
    a15d:	66 89 e5             	mov    %esp,%ebp
    a160:	66 83 ec 14          	sub    $0x14,%esp
    a164:	67 89 45 ec          	mov    %ax,-0x14(%ebp)
    a168:	67 66 0f b7 45 ec    	movzwl -0x14(%ebp),%eax
    a16e:	66 89 c2             	mov    %eax,%edx
    a171:	ec                   	in     (%dx),%al
    a172:	67 88 45 ff          	mov    %al,-0x1(%ebp)
    a176:	67 66 0f b6 45 ff    	movzbl -0x1(%ebp),%eax
    a17c:	66 c9                	leavel 
    a17e:	66 c3                	retl   

0000a180 <set_fs>:
    a180:	66 55                	push   %ebp
    a182:	66 89 e5             	mov    %esp,%ebp
    a185:	66 83 ec 04          	sub    $0x4,%esp
    a189:	67 89 45 fc          	mov    %ax,-0x4(%ebp)
    a18d:	67 8e 65 fc          	mov    -0x4(%ebp),%fs
    a191:	90                   	nop
    a192:	66 c9                	leavel 
    a194:	66 c3                	retl   

0000a196 <in_idx>:
    a196:	66 55                	push   %ebp
    a198:	66 89 e5             	mov    %esp,%ebp
    a19b:	66 83 ec 08          	sub    $0x8,%esp
    a19f:	66 89 c1             	mov    %eax,%ecx
    a1a2:	66 89 d0             	mov    %edx,%eax
    a1a5:	67 89 4d fc          	mov    %cx,-0x4(%ebp)
    a1a9:	67 88 45 f8          	mov    %al,-0x8(%ebp)
    a1ad:	67 66 0f b7 55 fc    	movzwl -0x4(%ebp),%edx
    a1b3:	67 66 0f b6 45 f8    	movzbl -0x8(%ebp),%eax
    a1b9:	66 e8 73 ff ff ff    	calll  a132 <outb>
    a1bf:	67 66 0f b7 45 fc    	movzwl -0x4(%ebp),%eax
    a1c5:	66 83 c0 01          	add    $0x1,%eax
    a1c9:	66 0f b7 c0          	movzwl %ax,%eax
    a1cd:	66 e8 88 ff ff ff    	calll  a15b <inb>
    a1d3:	66 c9                	leavel 
    a1d5:	66 c3                	retl   

0000a1d7 <bios_set_mode>:
    a1d7:	66 55                	push   %ebp
    a1d9:	66 89 e5             	mov    %esp,%ebp
    a1dc:	66 83 ec 18          	sub    $0x18,%esp
    a1e0:	67 66 89 45 f4       	mov    %eax,-0xc(%ebp)
    a1e5:	67 66 8b 45 f4       	mov    -0xc(%ebp),%eax
    a1ea:	67 66 0f b7 00       	movzwl (%eax),%eax
    a1ef:	66 0f b6 c0          	movzbl %al,%eax
    a1f3:	66 e8 04 00 00 00    	calll  a1fd <set_bios_mode>
    a1f9:	66 c9                	leavel 
    a1fb:	66 c3                	retl   

0000a1fd <set_bios_mode>:
    a1fd:	66 55                	push   %ebp
    a1ff:	66 89 e5             	mov    %esp,%ebp
    a202:	66 83 ec 78          	sub    $0x78,%esp
    a206:	67 88 45 94          	mov    %al,-0x6c(%ebp)
    a20a:	67 66 8d 45 c8       	lea    -0x38(%ebp),%eax
    a20f:	66 e8 59 e0 ff ff    	calll  826e <initregs>
    a215:	67 66 0f b6 45 94    	movzbl -0x6c(%ebp),%eax
    a21b:	67 88 45 e4          	mov    %al,-0x1c(%ebp)
    a21f:	67 66 8d 45 c8       	lea    -0x38(%ebp),%eax
    a224:	66 b9 00 00 00 00    	mov    $0x0,%ecx
    a22a:	66 89 c2             	mov    %eax,%edx
    a22d:	66 b8 10 00 00 00    	mov    $0x10,%eax
    a233:	66 e8 c2 e0 ff ff    	calll  82fb <intcall>
    a239:	67 c6 45 e5 0f       	movb   $0xf,-0x1b(%ebp)
    a23e:	67 66 8d 55 9c       	lea    -0x64(%ebp),%edx
    a243:	67 66 8d 45 c8       	lea    -0x38(%ebp),%eax
    a248:	66 89 d1             	mov    %edx,%ecx
    a24b:	66 89 c2             	mov    %eax,%edx
    a24e:	66 b8 10 00 00 00    	mov    $0x10,%eax
    a254:	66 e8 a1 e0 ff ff    	calll  82fb <intcall>
    a25a:	66 c7 06 f8 d5 01 00 	movl   $0x1,-0x2a08
    a261:	00 00 
    a263:	67 66 0f b6 45 b8    	movzbl -0x48(%ebp),%eax
    a269:	66 83 e0 7f          	and    $0x7f,%eax
    a26d:	67 88 45 f7          	mov    %al,-0x9(%ebp)
    a271:	67 66 0f b6 45 f7    	movzbl -0x9(%ebp),%eax
    a277:	67 3a 45 94          	cmp    -0x6c(%ebp),%al
    a27b:	75 08                	jne    a285 <set_bios_mode+0x88>
    a27d:	66 b8 00 00 00 00    	mov    $0x0,%eax
    a283:	eb 3a                	jmp    a2bf <set_bios_mode+0xc2>
    a285:	66 0f b6 06 bd d5    	movzbl -0x2a43,%eax
    a28b:	67 3a 45 f7          	cmp    -0x9(%ebp),%al
    a28f:	74 28                	je     a2b9 <set_bios_mode+0xbc>
    a291:	66 0f b6 06 bd d5    	movzbl -0x2a43,%eax
    a297:	66 0f b6 c0          	movzbl %al,%eax
    a29b:	67 89 45 e4          	mov    %ax,-0x1c(%ebp)
    a29f:	67 66 8d 45 c8       	lea    -0x38(%ebp),%eax
    a2a4:	66 b9 00 00 00 00    	mov    $0x0,%ecx
    a2aa:	66 89 c2             	mov    %eax,%edx
    a2ad:	66 b8 10 00 00 00    	mov    $0x10,%eax
    a2b3:	66 e8 42 e0 ff ff    	calll  82fb <intcall>
    a2b9:	66 b8 ff ff ff ff    	mov    $0xffffffff,%eax
    a2bf:	66 c9                	leavel 
    a2c1:	66 c3                	retl   

0000a2c3 <bios_probe>:
    a2c3:	66 55                	push   %ebp
    a2c5:	66 89 e5             	mov    %esp,%ebp
    a2c8:	66 83 ec 18          	sub    $0x18,%esp
    a2cc:	66 0f b6 06 bd d5    	movzbl -0x2a43,%eax
    a2d2:	67 88 45 ef          	mov    %al,-0x11(%ebp)
    a2d6:	67 66 c7 45 f0 00 00 	movl   $0x0,-0x10(%ebp)
    a2dd:	00 00 
    a2df:	66 a1 00 d6          	mov    0xd600,%eax
    a2e3:	66 83 f8 01          	cmp    $0x1,%eax
    a2e7:	74 13                	je     a2fc <bios_probe+0x39>
    a2e9:	66 a1 00 d6          	mov    0xd600,%eax
    a2ed:	66 83 f8 02          	cmp    $0x2,%eax
    a2f1:	74 09                	je     a2fc <bios_probe+0x39>
    a2f3:	66 b8 00 00 00 00    	mov    $0x0,%eax
    a2f9:	e9 8b 01             	jmp    a487 <bios_probe+0x1c4>
    a2fc:	66 b8 00 00 00 00    	mov    $0x0,%eax
    a302:	66 e8 78 fe ff ff    	calll  a180 <set_fs>
    a308:	66 e8 be f9 ff ff    	calll  9ccc <vga_crtc>
    a30e:	67 89 45 ec          	mov    %ax,-0x14(%ebp)
    a312:	66 b9 00 00 00 00    	mov    $0x0,%ecx
    a318:	66 ba 02 00 00 00    	mov    $0x2,%edx
    a31e:	66 b8 08 00 00 00    	mov    $0x8,%eax
    a324:	66 e8 2b fd ff ff    	calll  a055 <__get_heap>
    a32a:	66 a3 34 c6          	mov    %eax,0xc634
    a32e:	67 c6 45 f7 14       	movb   $0x14,-0x9(%ebp)
    a333:	e9 31 01             	jmp    a467 <bios_probe+0x1a4>
    a336:	66 b8 08 00 00 00    	mov    $0x8,%eax
    a33c:	66 e8 77 fd ff ff    	calll  a0b9 <heap_free>
    a342:	66 85 c0             	test   %eax,%eax
    a345:	0f 84 2c 01          	je     a475 <bios_probe+0x1b2>
    a349:	67 66 0f b6 45 f7    	movzbl -0x9(%ebp),%eax
    a34f:	05 00 01             	add    $0x100,%ax
    a352:	66 0f b7 c0          	movzwl %ax,%eax
    a356:	66 e8 72 ec ff ff    	calll  8fce <mode_defined>
    a35c:	66 85 c0             	test   %eax,%eax
    a35f:	0f 85 e9 00          	jne    a44c <bios_probe+0x189>
    a363:	67 66 0f b6 45 f7    	movzbl -0x9(%ebp),%eax
    a369:	66 e8 8e fe ff ff    	calll  a1fd <set_bios_mode>
    a36f:	66 85 c0             	test   %eax,%eax
    a372:	0f 85 d9 00          	jne    a44f <bios_probe+0x18c>
    a376:	66 ba 10 00 00 00    	mov    $0x10,%edx
    a37c:	66 b8 c0 03 00 00    	mov    $0x3c0,%eax
    a382:	66 e8 0e fe ff ff    	calll  a196 <in_idx>
    a388:	66 0f b6 c0          	movzbl %al,%eax
    a38c:	66 83 e0 01          	and    $0x1,%eax
    a390:	66 85 c0             	test   %eax,%eax
    a393:	0f 85 bb 00          	jne    a452 <bios_probe+0x18f>
    a397:	66 ba 06 00 00 00    	mov    $0x6,%edx
    a39d:	66 b8 ce 03 00 00    	mov    $0x3ce,%eax
    a3a3:	66 e8 ed fd ff ff    	calll  a196 <in_idx>
    a3a9:	66 0f b6 c0          	movzbl %al,%eax
    a3ad:	66 83 e0 01          	and    $0x1,%eax
    a3b1:	66 85 c0             	test   %eax,%eax
    a3b4:	0f 85 9d 00          	jne    a455 <bios_probe+0x192>
    a3b8:	67 66 0f b7 45 ec    	movzwl -0x14(%ebp),%eax
    a3be:	66 ba 0f 00 00 00    	mov    $0xf,%edx
    a3c4:	66 e8 cc fd ff ff    	calll  a196 <in_idx>
    a3ca:	84 c0                	test   %al,%al
    a3cc:	0f 85 88 00          	jne    a458 <bios_probe+0x195>
    a3d0:	66 b9 01 00 00 00    	mov    $0x1,%ecx
    a3d6:	66 ba 02 00 00 00    	mov    $0x2,%edx
    a3dc:	66 b8 08 00 00 00    	mov    $0x8,%eax
    a3e2:	66 e8 6d fc ff ff    	calll  a055 <__get_heap>
    a3e8:	67 66 89 45 e8       	mov    %eax,-0x18(%ebp)
    a3ed:	67 66 0f b6 45 f7    	movzbl -0x9(%ebp),%eax
    a3f3:	67 66 8d 90 00 01 00 	lea    0x100(%eax),%edx
    a3fa:	00 
    a3fb:	67 66 8b 45 e8       	mov    -0x18(%ebp),%eax
    a400:	67 89 10             	mov    %dx,(%eax)
    a403:	67 66 8b 45 e8       	mov    -0x18(%ebp),%eax
    a408:	67 c7 40 06 00 00    	movw   $0x0,0x6(%eax)
    a40e:	66 b8 4a 04 00 00    	mov    $0x44a,%eax
    a414:	66 e8 ce fc ff ff    	calll  a0e8 <rdfs16>
    a41a:	66 89 c2             	mov    %eax,%edx
    a41d:	67 66 8b 45 e8       	mov    -0x18(%ebp),%eax
    a422:	67 89 50 02          	mov    %dx,0x2(%eax)
    a426:	66 b8 84 04 00 00    	mov    $0x484,%eax
    a42c:	66 e8 db fc ff ff    	calll  a10d <rdfs8>
    a432:	66 0f b6 c0          	movzbl %al,%eax
    a436:	67 66 8d 50 01       	lea    0x1(%eax),%edx
    a43b:	67 66 8b 45 e8       	mov    -0x18(%ebp),%eax
    a440:	67 89 50 04          	mov    %dx,0x4(%eax)
    a444:	67 66 83 45 f0 01    	addl   $0x1,-0x10(%ebp)
    a44a:	eb 0d                	jmp    a459 <bios_probe+0x196>
    a44c:	90                   	nop
    a44d:	eb 0a                	jmp    a459 <bios_probe+0x196>
    a44f:	90                   	nop
    a450:	eb 07                	jmp    a459 <bios_probe+0x196>
    a452:	90                   	nop
    a453:	eb 04                	jmp    a459 <bios_probe+0x196>
    a455:	90                   	nop
    a456:	eb 01                	jmp    a459 <bios_probe+0x196>
    a458:	90                   	nop
    a459:	67 66 0f b6 45 f7    	movzbl -0x9(%ebp),%eax
    a45f:	66 83 c0 01          	add    $0x1,%eax
    a463:	67 88 45 f7          	mov    %al,-0x9(%ebp)
    a467:	67 66 0f b6 45 f7    	movzbl -0x9(%ebp),%eax
    a46d:	84 c0                	test   %al,%al
    a46f:	0f 89 c3 fe          	jns    a336 <bios_probe+0x73>
    a473:	eb 01                	jmp    a476 <bios_probe+0x1b3>
    a475:	90                   	nop
    a476:	67 66 0f b6 45 ef    	movzbl -0x11(%ebp),%eax
    a47c:	66 e8 7b fd ff ff    	calll  a1fd <set_bios_mode>
    a482:	67 66 8b 45 f0       	mov    -0x10(%ebp),%eax
    a487:	66 c9                	leavel 
    a489:	66 c3                	retl   

0000a48b <die>:
    a48b:	66 55                	push   %ebp
    a48d:	66 89 e5             	mov    %esp,%ebp
    a490:	f4                   	hlt    
    a491:	eb fd                	jmp    a490 <die+0x5>

0000a493 <io_delay>:
    a493:	66 55                	push   %ebp
    a495:	66 89 e5             	mov    %esp,%ebp
    a498:	e6 80                	out    %al,$0x80
    a49a:	90                   	nop
    a49b:	66 5d                	pop    %ebp
    a49d:	66 c3                	retl   

0000a49f <outb>:
    a49f:	66 55                	push   %ebp
    a4a1:	66 89 e5             	mov    %esp,%ebp
    a4a4:	66 83 ec 08          	sub    $0x8,%esp
    a4a8:	66 89 c1             	mov    %eax,%ecx
    a4ab:	66 89 d0             	mov    %edx,%eax
    a4ae:	67 88 4d fc          	mov    %cl,-0x4(%ebp)
    a4b2:	67 89 45 f8          	mov    %ax,-0x8(%ebp)
    a4b6:	67 66 0f b6 45 fc    	movzbl -0x4(%ebp),%eax
    a4bc:	67 66 0f b7 55 f8    	movzwl -0x8(%ebp),%edx
    a4c2:	ee                   	out    %al,(%dx)
    a4c3:	90                   	nop
    a4c4:	66 c9                	leavel 
    a4c6:	66 c3                	retl   

0000a4c8 <ds>:
    a4c8:	66 55                	push   %ebp
    a4ca:	66 89 e5             	mov    %esp,%ebp
    a4cd:	66 83 ec 10          	sub    $0x10,%esp
    a4d1:	8c d8                	mov    %ds,%ax
    a4d3:	67 89 45 fe          	mov    %ax,-0x2(%ebp)
    a4d7:	67 66 0f b7 45 fe    	movzwl -0x2(%ebp),%eax
    a4dd:	66 c9                	leavel 
    a4df:	66 c3                	retl   

0000a4e1 <realmode_switch_hook>:
    a4e1:	66 55                	push   %ebp
    a4e3:	66 89 e5             	mov    %esp,%ebp
    a4e6:	66 53                	push   %ebx
    a4e8:	66 a1 67 d5          	mov    0xd567,%eax
    a4ec:	66 85 c0             	test   %eax,%eax
    a4ef:	74 06                	je     a4f7 <realmode_switch_hook+0x16>
    a4f1:	ff 1e 67 d5          	lcall  *-0x2a99
    a4f5:	eb 19                	jmp    a510 <realmode_switch_hook+0x2f>
    a4f7:	fa                   	cli    
    a4f8:	66 ba 70 00 00 00    	mov    $0x70,%edx
    a4fe:	66 b8 08 00 00 00    	mov    $0x8,%eax
    a504:	66 e8 95 ff ff ff    	calll  a49f <outb>
    a50a:	66 e8 83 ff ff ff    	calll  a493 <io_delay>
    a510:	90                   	nop
    a511:	66 5b                	pop    %ebx
    a513:	66 5d                	pop    %ebp
    a515:	66 c3                	retl   

0000a517 <reset_coprocessor>:
    a517:	66 55                	push   %ebp
    a519:	66 89 e5             	mov    %esp,%ebp
    a51c:	66 ba f0 00 00 00    	mov    $0xf0,%edx
    a522:	66 b8 00 00 00 00    	mov    $0x0,%eax
    a528:	66 e8 71 ff ff ff    	calll  a49f <outb>
    a52e:	66 e8 5f ff ff ff    	calll  a493 <io_delay>
    a534:	66 ba f1 00 00 00    	mov    $0xf1,%edx
    a53a:	66 b8 00 00 00 00    	mov    $0x0,%eax
    a540:	66 e8 59 ff ff ff    	calll  a49f <outb>
    a546:	66 e8 47 ff ff ff    	calll  a493 <io_delay>
    a54c:	90                   	nop
    a54d:	66 5d                	pop    %ebp
    a54f:	66 c3                	retl   

0000a551 <mask_all_interrupts>:
    a551:	66 55                	push   %ebp
    a553:	66 89 e5             	mov    %esp,%ebp
    a556:	66 ba a1 00 00 00    	mov    $0xa1,%edx
    a55c:	66 b8 ff 00 00 00    	mov    $0xff,%eax
    a562:	66 e8 37 ff ff ff    	calll  a49f <outb>
    a568:	66 e8 25 ff ff ff    	calll  a493 <io_delay>
    a56e:	66 ba 21 00 00 00    	mov    $0x21,%edx
    a574:	66 b8 fb 00 00 00    	mov    $0xfb,%eax
    a57a:	66 e8 1f ff ff ff    	calll  a49f <outb>
    a580:	66 e8 0d ff ff ff    	calll  a493 <io_delay>
    a586:	90                   	nop
    a587:	66 5d                	pop    %ebp
    a589:	66 c3                	retl   

0000a58b <setup_idt>:
    a58b:	66 55                	push   %ebp
    a58d:	66 89 e5             	mov    %esp,%ebp
    a590:	66 0f 01 1e c0 b6    	lidtl  -0x4940
    a596:	90                   	nop
    a597:	66 5d                	pop    %ebp
    a599:	66 c3                	retl   

0000a59b <setup_gdt>:
    a59b:	66 55                	push   %ebp
    a59d:	66 89 e5             	mov    %esp,%ebp
    a5a0:	c7 06 20 c9 27 00    	movw   $0x27,-0x36e0
    a5a6:	66 e8 1c ff ff ff    	calll  a4c8 <ds>
    a5ac:	66 0f b7 c0          	movzwl %ax,%eax
    a5b0:	66 c1 e0 04          	shl    $0x4,%eax
    a5b4:	66 89 c2             	mov    %eax,%edx
    a5b7:	66 b8 d0 b6 00 00    	mov    $0xb6d0,%eax
    a5bd:	66 01 d0             	add    %edx,%eax
    a5c0:	66 a3 22 c9          	mov    %eax,0xc922
    a5c4:	66 0f 01 16 20 c9    	lgdtl  -0x36e0
    a5ca:	90                   	nop
    a5cb:	66 5d                	pop    %ebp
    a5cd:	66 c3                	retl   

0000a5cf <go_to_protected_mode>:
    a5cf:	66 55                	push   %ebp
    a5d1:	66 89 e5             	mov    %esp,%ebp
    a5d4:	66 83 ec 08          	sub    $0x8,%esp
    a5d8:	66 e8 03 ff ff ff    	calll  a4e1 <realmode_switch_hook>
    a5de:	66 e8 f8 01 00 00    	calll  a7dc <enable_a20>
    a5e4:	66 85 c0             	test   %eax,%eax
    a5e7:	74 12                	je     a5fb <go_to_protected_mode+0x2c>
    a5e9:	66 b8 70 b6 00 00    	mov    $0xb670,%eax
    a5ef:	66 e8 06 d8 ff ff    	calll  7dfb <puts>
    a5f5:	66 e8 90 fe ff ff    	calll  a48b <die>
    a5fb:	66 b8 9a b6 00 00    	mov    $0xb69a,%eax
    a601:	66 e8 f4 d7 ff ff    	calll  7dfb <puts>
    a607:	66 a1 44 c9          	mov    0xc944,%eax
    a60b:	66 83 ec 08          	sub    $0x8,%esp
    a60f:	66 50                	push   %eax
    a611:	66 68 a7 b6 00 00    	pushl  $0xb6a7
    a617:	66 e8 4e 0c 00 00    	calll  b26b <printf>
    a61d:	66 83 c4 10          	add    $0x10,%esp
    a621:	66 e8 f0 fe ff ff    	calll  a517 <reset_coprocessor>
    a627:	66 e8 24 ff ff ff    	calll  a551 <mask_all_interrupts>
    a62d:	66 e8 58 ff ff ff    	calll  a58b <setup_idt>
    a633:	66 e8 62 ff ff ff    	calll  a59b <setup_gdt>
    a639:	66 e8 89 fe ff ff    	calll  a4c8 <ds>
    a63f:	66 0f b7 c0          	movzwl %ax,%eax
    a643:	66 c1 e0 04          	shl    $0x4,%eax
    a647:	66 89 c2             	mov    %eax,%edx
    a64a:	66 b8 30 c9 00 00    	mov    $0xc930,%eax
    a650:	66 01 c2             	add    %eax,%edx
    a653:	66 a1 44 c9          	mov    0xc944,%eax
    a657:	66 e8 c4 01 00 00    	calll  a821 <protected_mode_jump>

0000a65d <io_delay>:
    a65d:	66 55                	push   %ebp
    a65f:	66 89 e5             	mov    %esp,%ebp
    a662:	e6 80                	out    %al,$0x80
    a664:	90                   	nop
    a665:	66 5d                	pop    %ebp
    a667:	66 c3                	retl   

0000a669 <set_fs>:
    a669:	66 55                	push   %ebp
    a66b:	66 89 e5             	mov    %esp,%ebp
    a66e:	66 83 ec 04          	sub    $0x4,%esp
    a672:	67 89 45 fc          	mov    %ax,-0x4(%ebp)
    a676:	67 8e 65 fc          	mov    -0x4(%ebp),%fs
    a67a:	90                   	nop
    a67b:	66 c9                	leavel 
    a67d:	66 c3                	retl   

0000a67f <set_gs>:
    a67f:	66 55                	push   %ebp
    a681:	66 89 e5             	mov    %esp,%ebp
    a684:	66 83 ec 04          	sub    $0x4,%esp
    a688:	67 89 45 fc          	mov    %ax,-0x4(%ebp)
    a68c:	67 8e 6d fc          	mov    -0x4(%ebp),%gs
    a690:	90                   	nop
    a691:	66 c9                	leavel 
    a693:	66 c3                	retl   

0000a695 <rdfs32>:
    a695:	66 55                	push   %ebp
    a697:	66 89 e5             	mov    %esp,%ebp
    a69a:	66 83 ec 14          	sub    $0x14,%esp
    a69e:	67 66 89 45 ec       	mov    %eax,-0x14(%ebp)
    a6a3:	67 66 8b 45 ec       	mov    -0x14(%ebp),%eax
    a6a8:	64 67 66 8b 00       	mov    %fs:(%eax),%eax
    a6ad:	67 66 89 45 fc       	mov    %eax,-0x4(%ebp)
    a6b2:	67 66 8b 45 fc       	mov    -0x4(%ebp),%eax
    a6b7:	66 c9                	leavel 
    a6b9:	66 c3                	retl   

0000a6bb <rdgs32>:
    a6bb:	66 55                	push   %ebp
    a6bd:	66 89 e5             	mov    %esp,%ebp
    a6c0:	66 83 ec 14          	sub    $0x14,%esp
    a6c4:	67 66 89 45 ec       	mov    %eax,-0x14(%ebp)
    a6c9:	67 66 8b 45 ec       	mov    -0x14(%ebp),%eax
    a6ce:	65 67 66 8b 00       	mov    %gs:(%eax),%eax
    a6d3:	67 66 89 45 fc       	mov    %eax,-0x4(%ebp)
    a6d8:	67 66 8b 45 fc       	mov    -0x4(%ebp),%eax
    a6dd:	66 c9                	leavel 
    a6df:	66 c3                	retl   

0000a6e1 <wrfs32>:
    a6e1:	66 55                	push   %ebp
    a6e3:	66 89 e5             	mov    %esp,%ebp
    a6e6:	66 83 ec 08          	sub    $0x8,%esp
    a6ea:	67 66 89 45 fc       	mov    %eax,-0x4(%ebp)
    a6ef:	67 66 89 55 f8       	mov    %edx,-0x8(%ebp)
    a6f4:	67 66 8b 45 f8       	mov    -0x8(%ebp),%eax
    a6f9:	67 66 8b 55 fc       	mov    -0x4(%ebp),%edx
    a6fe:	64 67 66 89 10       	mov    %edx,%fs:(%eax)
    a703:	90                   	nop
    a704:	66 c9                	leavel 
    a706:	66 c3                	retl   

0000a708 <a20_test>:
    a708:	66 55                	push   %ebp
    a70a:	66 89 e5             	mov    %esp,%ebp
    a70d:	66 83 ec 14          	sub    $0x14,%esp
    a711:	67 66 89 45 ec       	mov    %eax,-0x14(%ebp)
    a716:	67 66 c7 45 fc 00 00 	movl   $0x0,-0x4(%ebp)
    a71d:	00 00 
    a71f:	66 b8 00 00 00 00    	mov    $0x0,%eax
    a725:	66 e8 3e ff ff ff    	calll  a669 <set_fs>
    a72b:	66 b8 ff ff 00 00    	mov    $0xffff,%eax
    a731:	66 e8 48 ff ff ff    	calll  a67f <set_gs>
    a737:	66 b8 00 02 00 00    	mov    $0x200,%eax
    a73d:	66 e8 52 ff ff ff    	calll  a695 <rdfs32>
    a743:	67 66 89 45 f8       	mov    %eax,-0x8(%ebp)
    a748:	67 66 8b 45 f8       	mov    -0x8(%ebp),%eax
    a74d:	67 66 89 45 f4       	mov    %eax,-0xc(%ebp)
    a752:	eb 41                	jmp    a795 <a20_test+0x8d>
    a754:	67 66 83 45 f8 01    	addl   $0x1,-0x8(%ebp)
    a75a:	67 66 8b 45 f8       	mov    -0x8(%ebp),%eax
    a75f:	66 ba 00 02 00 00    	mov    $0x200,%edx
    a765:	66 e8 76 ff ff ff    	calll  a6e1 <wrfs32>
    a76b:	66 e8 ec fe ff ff    	calll  a65d <io_delay>
    a771:	66 b8 10 02 00 00    	mov    $0x210,%eax
    a777:	66 e8 3e ff ff ff    	calll  a6bb <rdgs32>
    a77d:	66 89 c2             	mov    %eax,%edx
    a780:	67 66 8b 45 f8       	mov    -0x8(%ebp),%eax
    a785:	66 31 d0             	xor    %edx,%eax
    a788:	67 66 89 45 fc       	mov    %eax,-0x4(%ebp)
    a78d:	67 66 83 7d fc 00    	cmpl   $0x0,-0x4(%ebp)
    a793:	75 16                	jne    a7ab <a20_test+0xa3>
    a795:	67 66 8b 45 ec       	mov    -0x14(%ebp),%eax
    a79a:	67 66 8d 50 ff       	lea    -0x1(%eax),%edx
    a79f:	67 66 89 55 ec       	mov    %edx,-0x14(%ebp)
    a7a4:	66 85 c0             	test   %eax,%eax
    a7a7:	75 ab                	jne    a754 <a20_test+0x4c>
    a7a9:	eb 01                	jmp    a7ac <a20_test+0xa4>
    a7ab:	90                   	nop
    a7ac:	67 66 8b 45 f4       	mov    -0xc(%ebp),%eax
    a7b1:	66 ba 00 02 00 00    	mov    $0x200,%edx
    a7b7:	66 e8 24 ff ff ff    	calll  a6e1 <wrfs32>
    a7bd:	67 66 8b 45 fc       	mov    -0x4(%ebp),%eax
    a7c2:	66 c9                	leavel 
    a7c4:	66 c3                	retl   

0000a7c6 <a20_test_short>:
    a7c6:	66 55                	push   %ebp
    a7c8:	66 89 e5             	mov    %esp,%ebp
    a7cb:	66 b8 20 00 00 00    	mov    $0x20,%eax
    a7d1:	66 e8 31 ff ff ff    	calll  a708 <a20_test>
    a7d7:	90                   	nop
    a7d8:	66 5d                	pop    %ebp
    a7da:	66 c3                	retl   

0000a7dc <enable_a20>:
    a7dc:	66 55                	push   %ebp
    a7de:	66 89 e5             	mov    %esp,%ebp
    a7e1:	66 83 ec 10          	sub    $0x10,%esp
    a7e5:	67 66 c7 45 fc ff 00 	movl   $0xff,-0x4(%ebp)
    a7ec:	00 00 
    a7ee:	eb 13                	jmp    a803 <enable_a20+0x27>
    a7f0:	66 e8 d0 ff ff ff    	calll  a7c6 <a20_test_short>
    a7f6:	66 85 c0             	test   %eax,%eax
    a7f9:	74 08                	je     a803 <enable_a20+0x27>
    a7fb:	66 b8 00 00 00 00    	mov    $0x0,%eax
    a801:	eb 1a                	jmp    a81d <enable_a20+0x41>
    a803:	67 66 8b 45 fc       	mov    -0x4(%ebp),%eax
    a808:	67 66 8d 50 ff       	lea    -0x1(%eax),%edx
    a80d:	67 66 89 55 fc       	mov    %edx,-0x4(%ebp)
    a812:	66 85 c0             	test   %eax,%eax
    a815:	75 d9                	jne    a7f0 <enable_a20+0x14>
    a817:	66 b8 00 00 00 00    	mov    $0x0,%eax
    a81d:	66 c9                	leavel 
    a81f:	66 c3                	retl   

0000a821 <protected_mode_jump>:
    a821:	66 89 d6             	mov    %edx,%esi
    a824:	66 31 db             	xor    %ebx,%ebx
    a827:	8c cb                	mov    %cs,%bx
    a829:	66 c1 e3 04          	shl    $0x4,%ebx
    a82d:	66 01 1e 45 a8       	add    %ebx,-0x57bb
    a832:	eb 00                	jmp    a834 <protected_mode_jump+0x13>
    a834:	b9 18 00             	mov    $0x18,%cx
    a837:	bf 20 00             	mov    $0x20,%di
    a83a:	0f 20 c2             	mov    %cr0,%edx
    a83d:	80 ca 01             	or     $0x1,%dl
    a840:	0f 22 c2             	mov    %edx,%cr0
    a843:	66 ea 9d b4 00 00 10 	ljmpl  $0x10,$0xb49d
    a84a:	00 

0000a84b <isdigit>:
    a84b:	66 55                	push   %ebp
    a84d:	66 89 e5             	mov    %esp,%ebp
    a850:	66 83 ec 04          	sub    $0x4,%esp
    a854:	67 66 89 45 fc       	mov    %eax,-0x4(%ebp)
    a859:	67 66 83 7d fc 2f    	cmpl   $0x2f,-0x4(%ebp)
    a85f:	7e 10                	jle    a871 <isdigit+0x26>
    a861:	67 66 83 7d fc 39    	cmpl   $0x39,-0x4(%ebp)
    a867:	7f 08                	jg     a871 <isdigit+0x26>
    a869:	66 b8 01 00 00 00    	mov    $0x1,%eax
    a86f:	eb 06                	jmp    a877 <isdigit+0x2c>
    a871:	66 b8 00 00 00 00    	mov    $0x0,%eax
    a877:	66 c9                	leavel 
    a879:	66 c3                	retl   

0000a87b <skip_atoi>:
    a87b:	66 55                	push   %ebp
    a87d:	66 89 e5             	mov    %esp,%ebp
    a880:	66 53                	push   %ebx
    a882:	66 83 ec 14          	sub    $0x14,%esp
    a886:	67 66 89 45 e8       	mov    %eax,-0x18(%ebp)
    a88b:	67 66 c7 45 f8 00 00 	movl   $0x0,-0x8(%ebp)
    a892:	00 00 
    a894:	eb 41                	jmp    a8d7 <skip_atoi+0x5c>
    a896:	67 66 8b 55 f8       	mov    -0x8(%ebp),%edx
    a89b:	66 89 d0             	mov    %edx,%eax
    a89e:	66 c1 e0 02          	shl    $0x2,%eax
    a8a2:	66 01 d0             	add    %edx,%eax
    a8a5:	66 01 c0             	add    %eax,%eax
    a8a8:	66 89 c3             	mov    %eax,%ebx
    a8ab:	67 66 8b 45 e8       	mov    -0x18(%ebp),%eax
    a8b0:	67 66 8b 00          	mov    (%eax),%eax
    a8b4:	67 66 8d 48 01       	lea    0x1(%eax),%ecx
    a8b9:	67 66 8b 55 e8       	mov    -0x18(%ebp),%edx
    a8be:	67 66 89 0a          	mov    %ecx,(%edx)
    a8c2:	67 66 0f b6 00       	movzbl (%eax),%eax
    a8c7:	66 0f be c0          	movsbl %al,%eax
    a8cb:	66 01 d8             	add    %ebx,%eax
    a8ce:	66 83 e8 30          	sub    $0x30,%eax
    a8d2:	67 66 89 45 f8       	mov    %eax,-0x8(%ebp)
    a8d7:	67 66 8b 45 e8       	mov    -0x18(%ebp),%eax
    a8dc:	67 66 8b 00          	mov    (%eax),%eax
    a8e0:	67 66 0f b6 00       	movzbl (%eax),%eax
    a8e5:	66 0f be c0          	movsbl %al,%eax
    a8e9:	66 e8 5c ff ff ff    	calll  a84b <isdigit>
    a8ef:	66 85 c0             	test   %eax,%eax
    a8f2:	75 a2                	jne    a896 <skip_atoi+0x1b>
    a8f4:	67 66 8b 45 f8       	mov    -0x8(%ebp),%eax
    a8f9:	66 83 c4 14          	add    $0x14,%esp
    a8fd:	66 5b                	pop    %ebx
    a8ff:	66 5d                	pop    %ebp
    a901:	66 c3                	retl   

0000a903 <number>:
    a903:	66 55                	push   %ebp
    a905:	66 89 e5             	mov    %esp,%ebp
    a908:	66 53                	push   %ebx
    a90a:	66 83 ec 6c          	sub    $0x6c,%esp
    a90e:	67 66 89 45 98       	mov    %eax,-0x68(%ebp)
    a913:	67 66 89 55 94       	mov    %edx,-0x6c(%ebp)
    a918:	67 66 89 4d 90       	mov    %ecx,-0x70(%ebp)
    a91d:	67 66 8b 45 10       	mov    0x10(%ebp),%eax
    a922:	66 83 e0 20          	and    $0x20,%eax
    a926:	67 88 45 f3          	mov    %al,-0xd(%ebp)
    a92a:	67 66 8b 45 10       	mov    0x10(%ebp),%eax
    a92f:	66 83 e0 10          	and    $0x10,%eax
    a933:	66 85 c0             	test   %eax,%eax
    a936:	74 06                	je     a93e <number+0x3b>
    a938:	67 66 83 65 10 fe    	andl   $0xfffffffe,0x10(%ebp)
    a93e:	67 66 83 7d 90 01    	cmpl   $0x1,-0x70(%ebp)
    a944:	7e 08                	jle    a94e <number+0x4b>
    a946:	67 66 83 7d 90 24    	cmpl   $0x24,-0x70(%ebp)
    a94c:	7e 09                	jle    a957 <number+0x54>
    a94e:	66 b8 00 00 00 00    	mov    $0x0,%eax
    a954:	e9 dd 02             	jmp    ac34 <number+0x331>
    a957:	67 66 8b 45 10       	mov    0x10(%ebp),%eax
    a95c:	66 83 e0 01          	and    $0x1,%eax
    a960:	66 85 c0             	test   %eax,%eax
    a963:	74 08                	je     a96d <number+0x6a>
    a965:	66 b8 30 00 00 00    	mov    $0x30,%eax
    a96b:	eb 06                	jmp    a973 <number+0x70>
    a96d:	66 b8 20 00 00 00    	mov    $0x20,%eax
    a973:	67 88 45 f2          	mov    %al,-0xe(%ebp)
    a977:	67 c6 45 fb 00       	movb   $0x0,-0x5(%ebp)
    a97c:	67 66 8b 45 10       	mov    0x10(%ebp),%eax
    a981:	66 83 e0 02          	and    $0x2,%eax
    a985:	66 85 c0             	test   %eax,%eax
    a988:	74 4e                	je     a9d8 <number+0xd5>
    a98a:	67 66 83 7d 94 00    	cmpl   $0x0,-0x6c(%ebp)
    a990:	79 12                	jns    a9a4 <number+0xa1>
    a992:	67 c6 45 fb 2d       	movb   $0x2d,-0x5(%ebp)
    a997:	67 66 f7 5d 94       	negl   -0x6c(%ebp)
    a99c:	67 66 83 6d 08 01    	subl   $0x1,0x8(%ebp)
    a9a2:	eb 34                	jmp    a9d8 <number+0xd5>
    a9a4:	67 66 8b 45 10       	mov    0x10(%ebp),%eax
    a9a9:	66 83 e0 04          	and    $0x4,%eax
    a9ad:	66 85 c0             	test   %eax,%eax
    a9b0:	74 0d                	je     a9bf <number+0xbc>
    a9b2:	67 c6 45 fb 2b       	movb   $0x2b,-0x5(%ebp)
    a9b7:	67 66 83 6d 08 01    	subl   $0x1,0x8(%ebp)
    a9bd:	eb 19                	jmp    a9d8 <number+0xd5>
    a9bf:	67 66 8b 45 10       	mov    0x10(%ebp),%eax
    a9c4:	66 83 e0 08          	and    $0x8,%eax
    a9c8:	66 85 c0             	test   %eax,%eax
    a9cb:	74 0b                	je     a9d8 <number+0xd5>
    a9cd:	67 c6 45 fb 20       	movb   $0x20,-0x5(%ebp)
    a9d2:	67 66 83 6d 08 01    	subl   $0x1,0x8(%ebp)
    a9d8:	67 66 8b 45 10       	mov    0x10(%ebp),%eax
    a9dd:	66 83 e0 40          	and    $0x40,%eax
    a9e1:	66 85 c0             	test   %eax,%eax
    a9e4:	74 1e                	je     aa04 <number+0x101>
    a9e6:	67 66 83 7d 90 10    	cmpl   $0x10,-0x70(%ebp)
    a9ec:	75 08                	jne    a9f6 <number+0xf3>
    a9ee:	67 66 83 6d 08 02    	subl   $0x2,0x8(%ebp)
    a9f4:	eb 0e                	jmp    aa04 <number+0x101>
    a9f6:	67 66 83 7d 90 08    	cmpl   $0x8,-0x70(%ebp)
    a9fc:	75 06                	jne    aa04 <number+0x101>
    a9fe:	67 66 83 6d 08 01    	subl   $0x1,0x8(%ebp)
    aa04:	67 66 c7 45 f4 00 00 	movl   $0x0,-0xc(%ebp)
    aa0b:	00 00 
    aa0d:	67 66 83 7d 94 00    	cmpl   $0x0,-0x6c(%ebp)
    aa13:	75 70                	jne    aa85 <number+0x182>
    aa15:	67 66 8b 45 f4       	mov    -0xc(%ebp),%eax
    aa1a:	67 66 8d 50 01       	lea    0x1(%eax),%edx
    aa1f:	67 66 89 55 f4       	mov    %edx,-0xc(%ebp)
    aa24:	67 c6 44 05 aa 30    	movb   $0x30,-0x56(%ebp,%eax,1)
    aa2a:	eb 61                	jmp    aa8d <number+0x18a>
    aa2c:	67 66 8b 4d f4       	mov    -0xc(%ebp),%ecx
    aa31:	67 66 8d 41 01       	lea    0x1(%ecx),%eax
    aa36:	67 66 89 45 f4       	mov    %eax,-0xc(%ebp)
    aa3b:	67 66 8b 45 94       	mov    -0x6c(%ebp),%eax
    aa40:	67 66 8b 5d 90       	mov    -0x70(%ebp),%ebx
    aa45:	66 ba 00 00 00 00    	mov    $0x0,%edx
    aa4b:	66 f7 f3             	div    %ebx
    aa4e:	66 89 d0             	mov    %edx,%eax
    aa51:	67 66 89 45 ec       	mov    %eax,-0x14(%ebp)
    aa56:	67 66 8b 45 94       	mov    -0x6c(%ebp),%eax
    aa5b:	67 66 8b 5d 90       	mov    -0x70(%ebp),%ebx
    aa60:	66 ba 00 00 00 00    	mov    $0x0,%edx
    aa66:	66 f7 f3             	div    %ebx
    aa69:	67 66 89 45 94       	mov    %eax,-0x6c(%ebp)
    aa6e:	67 66 8b 45 ec       	mov    -0x14(%ebp),%eax
    aa73:	67 66 0f b6 80 8c b8 	movzbl 0xb88c(%eax),%eax
    aa7a:	00 00 
    aa7c:	67 0a 45 f3          	or     -0xd(%ebp),%al
    aa80:	67 88 44 0d aa       	mov    %al,-0x56(%ebp,%ecx,1)
    aa85:	67 66 83 7d 94 00    	cmpl   $0x0,-0x6c(%ebp)
    aa8b:	75 9f                	jne    aa2c <number+0x129>
    aa8d:	67 66 8b 45 f4       	mov    -0xc(%ebp),%eax
    aa92:	67 66 3b 45 0c       	cmp    0xc(%ebp),%eax
    aa97:	7e 0a                	jle    aaa3 <number+0x1a0>
    aa99:	67 66 8b 45 f4       	mov    -0xc(%ebp),%eax
    aa9e:	67 66 89 45 0c       	mov    %eax,0xc(%ebp)
    aaa3:	67 66 8b 45 0c       	mov    0xc(%ebp),%eax
    aaa8:	67 66 29 45 08       	sub    %eax,0x8(%ebp)
    aaad:	67 66 8b 45 10       	mov    0x10(%ebp),%eax
    aab2:	66 83 e0 11          	and    $0x11,%eax
    aab6:	66 85 c0             	test   %eax,%eax
    aab9:	75 29                	jne    aae4 <number+0x1e1>
    aabb:	eb 13                	jmp    aad0 <number+0x1cd>
    aabd:	67 66 8b 45 98       	mov    -0x68(%ebp),%eax
    aac2:	67 66 8d 50 01       	lea    0x1(%eax),%edx
    aac7:	67 66 89 55 98       	mov    %edx,-0x68(%ebp)
    aacc:	67 c6 00 20          	movb   $0x20,(%eax)
    aad0:	67 66 8b 45 08       	mov    0x8(%ebp),%eax
    aad5:	67 66 8d 50 ff       	lea    -0x1(%eax),%edx
    aada:	67 66 89 55 08       	mov    %edx,0x8(%ebp)
    aadf:	66 85 c0             	test   %eax,%eax
    aae2:	7f d9                	jg     aabd <number+0x1ba>
    aae4:	67 80 7d fb 00       	cmpb   $0x0,-0x5(%ebp)
    aae9:	74 18                	je     ab03 <number+0x200>
    aaeb:	67 66 8b 45 98       	mov    -0x68(%ebp),%eax
    aaf0:	67 66 8d 50 01       	lea    0x1(%eax),%edx
    aaf5:	67 66 89 55 98       	mov    %edx,-0x68(%ebp)
    aafa:	67 66 0f b6 55 fb    	movzbl -0x5(%ebp),%edx
    ab00:	67 88 10             	mov    %dl,(%eax)
    ab03:	67 66 8b 45 10       	mov    0x10(%ebp),%eax
    ab08:	66 83 e0 40          	and    $0x40,%eax
    ab0c:	66 85 c0             	test   %eax,%eax
    ab0f:	74 54                	je     ab65 <number+0x262>
    ab11:	67 66 83 7d 90 08    	cmpl   $0x8,-0x70(%ebp)
    ab17:	75 15                	jne    ab2e <number+0x22b>
    ab19:	67 66 8b 45 98       	mov    -0x68(%ebp),%eax
    ab1e:	67 66 8d 50 01       	lea    0x1(%eax),%edx
    ab23:	67 66 89 55 98       	mov    %edx,-0x68(%ebp)
    ab28:	67 c6 00 30          	movb   $0x30,(%eax)
    ab2c:	eb 37                	jmp    ab65 <number+0x262>
    ab2e:	67 66 83 7d 90 10    	cmpl   $0x10,-0x70(%ebp)
    ab34:	75 2f                	jne    ab65 <number+0x262>
    ab36:	67 66 8b 45 98       	mov    -0x68(%ebp),%eax
    ab3b:	67 66 8d 50 01       	lea    0x1(%eax),%edx
    ab40:	67 66 89 55 98       	mov    %edx,-0x68(%ebp)
    ab45:	67 c6 00 30          	movb   $0x30,(%eax)
    ab49:	67 66 8b 45 98       	mov    -0x68(%ebp),%eax
    ab4e:	67 66 8d 50 01       	lea    0x1(%eax),%edx
    ab53:	67 66 89 55 98       	mov    %edx,-0x68(%ebp)
    ab58:	67 66 0f b6 55 f3    	movzbl -0xd(%ebp),%edx
    ab5e:	66 83 ca 58          	or     $0x58,%edx
    ab62:	67 88 10             	mov    %dl,(%eax)
    ab65:	67 66 8b 45 10       	mov    0x10(%ebp),%eax
    ab6a:	66 83 e0 10          	and    $0x10,%eax
    ab6e:	66 85 c0             	test   %eax,%eax
    ab71:	75 43                	jne    abb6 <number+0x2b3>
    ab73:	eb 18                	jmp    ab8d <number+0x28a>
    ab75:	67 66 8b 45 98       	mov    -0x68(%ebp),%eax
    ab7a:	67 66 8d 50 01       	lea    0x1(%eax),%edx
    ab7f:	67 66 89 55 98       	mov    %edx,-0x68(%ebp)
    ab84:	67 66 0f b6 55 f2    	movzbl -0xe(%ebp),%edx
    ab8a:	67 88 10             	mov    %dl,(%eax)
    ab8d:	67 66 8b 45 08       	mov    0x8(%ebp),%eax
    ab92:	67 66 8d 50 ff       	lea    -0x1(%eax),%edx
    ab97:	67 66 89 55 08       	mov    %edx,0x8(%ebp)
    ab9c:	66 85 c0             	test   %eax,%eax
    ab9f:	7f d4                	jg     ab75 <number+0x272>
    aba1:	eb 13                	jmp    abb6 <number+0x2b3>
    aba3:	67 66 8b 45 98       	mov    -0x68(%ebp),%eax
    aba8:	67 66 8d 50 01       	lea    0x1(%eax),%edx
    abad:	67 66 89 55 98       	mov    %edx,-0x68(%ebp)
    abb2:	67 c6 00 30          	movb   $0x30,(%eax)
    abb6:	67 66 8b 45 0c       	mov    0xc(%ebp),%eax
    abbb:	67 66 8d 50 ff       	lea    -0x1(%eax),%edx
    abc0:	67 66 89 55 0c       	mov    %edx,0xc(%ebp)
    abc5:	67 66 3b 45 f4       	cmp    -0xc(%ebp),%eax
    abca:	7f d7                	jg     aba3 <number+0x2a0>
    abcc:	eb 24                	jmp    abf2 <number+0x2ef>
    abce:	67 66 8b 45 98       	mov    -0x68(%ebp),%eax
    abd3:	67 66 8d 50 01       	lea    0x1(%eax),%edx
    abd8:	67 66 89 55 98       	mov    %edx,-0x68(%ebp)
    abdd:	67 66 8d 4d aa       	lea    -0x56(%ebp),%ecx
    abe2:	67 66 8b 55 f4       	mov    -0xc(%ebp),%edx
    abe7:	66 01 ca             	add    %ecx,%edx
    abea:	67 66 0f b6 12       	movzbl (%edx),%edx
    abef:	67 88 10             	mov    %dl,(%eax)
    abf2:	67 66 8b 45 f4       	mov    -0xc(%ebp),%eax
    abf7:	67 66 8d 50 ff       	lea    -0x1(%eax),%edx
    abfc:	67 66 89 55 f4       	mov    %edx,-0xc(%ebp)
    ac01:	66 85 c0             	test   %eax,%eax
    ac04:	7f c8                	jg     abce <number+0x2cb>
    ac06:	eb 13                	jmp    ac1b <number+0x318>
    ac08:	67 66 8b 45 98       	mov    -0x68(%ebp),%eax
    ac0d:	67 66 8d 50 01       	lea    0x1(%eax),%edx
    ac12:	67 66 89 55 98       	mov    %edx,-0x68(%ebp)
    ac17:	67 c6 00 20          	movb   $0x20,(%eax)
    ac1b:	67 66 8b 45 08       	mov    0x8(%ebp),%eax
    ac20:	67 66 8d 50 ff       	lea    -0x1(%eax),%edx
    ac25:	67 66 89 55 08       	mov    %edx,0x8(%ebp)
    ac2a:	66 85 c0             	test   %eax,%eax
    ac2d:	7f d9                	jg     ac08 <number+0x305>
    ac2f:	67 66 8b 45 98       	mov    -0x68(%ebp),%eax
    ac34:	66 83 c4 6c          	add    $0x6c,%esp
    ac38:	66 5b                	pop    %ebx
    ac3a:	66 5d                	pop    %ebp
    ac3c:	66 c3                	retl   

0000ac3e <vsprintf>:
    ac3e:	66 55                	push   %ebp
    ac40:	66 89 e5             	mov    %esp,%ebp
    ac43:	66 83 ec 48          	sub    $0x48,%esp
    ac47:	67 66 89 45 c4       	mov    %eax,-0x3c(%ebp)
    ac4c:	67 66 89 55 c0       	mov    %edx,-0x40(%ebp)
    ac51:	67 66 89 4d bc       	mov    %ecx,-0x44(%ebp)
    ac56:	67 66 8b 45 c4       	mov    -0x3c(%ebp),%eax
    ac5b:	67 66 89 45 e8       	mov    %eax,-0x18(%ebp)
    ac60:	e9 9b 05             	jmp    b1fe <vsprintf+0x5c0>
    ac63:	67 66 8b 45 c0       	mov    -0x40(%ebp),%eax
    ac68:	67 66 0f b6 00       	movzbl (%eax),%eax
    ac6d:	3c 25                	cmp    $0x25,%al
    ac6f:	74 1f                	je     ac90 <vsprintf+0x52>
    ac71:	67 66 8b 45 e8       	mov    -0x18(%ebp),%eax
    ac76:	67 66 8d 50 01       	lea    0x1(%eax),%edx
    ac7b:	67 66 89 55 e8       	mov    %edx,-0x18(%ebp)
    ac80:	67 66 8b 55 c0       	mov    -0x40(%ebp),%edx
    ac85:	67 66 0f b6 12       	movzbl (%edx),%edx
    ac8a:	67 88 10             	mov    %dl,(%eax)
    ac8d:	e9 60 05             	jmp    b1f0 <vsprintf+0x5b2>
    ac90:	67 66 c7 45 e0 00 00 	movl   $0x0,-0x20(%ebp)
    ac97:	00 00 
    ac99:	67 66 8b 45 c0       	mov    -0x40(%ebp),%eax
    ac9e:	66 83 c0 01          	add    $0x1,%eax
    aca2:	67 66 89 45 c0       	mov    %eax,-0x40(%ebp)
    aca7:	67 66 8b 45 c0       	mov    -0x40(%ebp),%eax
    acac:	67 66 0f b6 00       	movzbl (%eax),%eax
    acb1:	66 0f be c0          	movsbl %al,%eax
    acb5:	66 83 e8 20          	sub    $0x20,%eax
    acb9:	66 83 f8 10          	cmp    $0x10,%eax
    acbd:	77 34                	ja     acf3 <vsprintf+0xb5>
    acbf:	67 66 8b 04 85 f8 b6 	mov    0xb6f8(,%eax,4),%eax
    acc6:	00 00 
    acc8:	66 ff e0             	jmpl   *%eax
    accb:	67 66 83 4d e0 10    	orl    $0x10,-0x20(%ebp)
    acd1:	eb c6                	jmp    ac99 <vsprintf+0x5b>
    acd3:	67 66 83 4d e0 04    	orl    $0x4,-0x20(%ebp)
    acd9:	eb be                	jmp    ac99 <vsprintf+0x5b>
    acdb:	67 66 83 4d e0 08    	orl    $0x8,-0x20(%ebp)
    ace1:	eb b6                	jmp    ac99 <vsprintf+0x5b>
    ace3:	67 66 83 4d e0 40    	orl    $0x40,-0x20(%ebp)
    ace9:	eb ae                	jmp    ac99 <vsprintf+0x5b>
    aceb:	67 66 83 4d e0 01    	orl    $0x1,-0x20(%ebp)
    acf1:	eb a6                	jmp    ac99 <vsprintf+0x5b>
    acf3:	67 66 c7 45 dc ff ff 	movl   $0xffffffff,-0x24(%ebp)
    acfa:	ff ff 
    acfc:	67 66 8b 45 c0       	mov    -0x40(%ebp),%eax
    ad01:	67 66 0f b6 00       	movzbl (%eax),%eax
    ad06:	66 0f be c0          	movsbl %al,%eax
    ad0a:	66 e8 3b fb ff ff    	calll  a84b <isdigit>
    ad10:	66 85 c0             	test   %eax,%eax
    ad13:	74 12                	je     ad27 <vsprintf+0xe9>
    ad15:	67 66 8d 45 c0       	lea    -0x40(%ebp),%eax
    ad1a:	66 e8 5b fb ff ff    	calll  a87b <skip_atoi>
    ad20:	67 66 89 45 dc       	mov    %eax,-0x24(%ebp)
    ad25:	eb 44                	jmp    ad6b <vsprintf+0x12d>
    ad27:	67 66 8b 45 c0       	mov    -0x40(%ebp),%eax
    ad2c:	67 66 0f b6 00       	movzbl (%eax),%eax
    ad31:	3c 2a                	cmp    $0x2a,%al
    ad33:	75 36                	jne    ad6b <vsprintf+0x12d>
    ad35:	67 66 8b 45 c0       	mov    -0x40(%ebp),%eax
    ad3a:	66 83 c0 01          	add    $0x1,%eax
    ad3e:	67 66 89 45 c0       	mov    %eax,-0x40(%ebp)
    ad43:	67 66 83 45 bc 04    	addl   $0x4,-0x44(%ebp)
    ad49:	67 66 8b 45 bc       	mov    -0x44(%ebp),%eax
    ad4e:	67 66 8b 40 fc       	mov    -0x4(%eax),%eax
    ad53:	67 66 89 45 dc       	mov    %eax,-0x24(%ebp)
    ad58:	67 66 83 7d dc 00    	cmpl   $0x0,-0x24(%ebp)
    ad5e:	79 0b                	jns    ad6b <vsprintf+0x12d>
    ad60:	67 66 f7 5d dc       	negl   -0x24(%ebp)
    ad65:	67 66 83 4d e0 10    	orl    $0x10,-0x20(%ebp)
    ad6b:	67 66 c7 45 d8 ff ff 	movl   $0xffffffff,-0x28(%ebp)
    ad72:	ff ff 
    ad74:	67 66 8b 45 c0       	mov    -0x40(%ebp),%eax
    ad79:	67 66 0f b6 00       	movzbl (%eax),%eax
    ad7e:	3c 2e                	cmp    $0x2e,%al
    ad80:	75 7b                	jne    adfd <vsprintf+0x1bf>
    ad82:	67 66 8b 45 c0       	mov    -0x40(%ebp),%eax
    ad87:	66 83 c0 01          	add    $0x1,%eax
    ad8b:	67 66 89 45 c0       	mov    %eax,-0x40(%ebp)
    ad90:	67 66 8b 45 c0       	mov    -0x40(%ebp),%eax
    ad95:	67 66 0f b6 00       	movzbl (%eax),%eax
    ad9a:	66 0f be c0          	movsbl %al,%eax
    ad9e:	66 e8 a7 fa ff ff    	calll  a84b <isdigit>
    ada4:	66 85 c0             	test   %eax,%eax
    ada7:	74 12                	je     adbb <vsprintf+0x17d>
    ada9:	67 66 8d 45 c0       	lea    -0x40(%ebp),%eax
    adae:	66 e8 c7 fa ff ff    	calll  a87b <skip_atoi>
    adb4:	67 66 89 45 d8       	mov    %eax,-0x28(%ebp)
    adb9:	eb 31                	jmp    adec <vsprintf+0x1ae>
    adbb:	67 66 8b 45 c0       	mov    -0x40(%ebp),%eax
    adc0:	67 66 0f b6 00       	movzbl (%eax),%eax
    adc5:	3c 2a                	cmp    $0x2a,%al
    adc7:	75 23                	jne    adec <vsprintf+0x1ae>
    adc9:	67 66 8b 45 c0       	mov    -0x40(%ebp),%eax
    adce:	66 83 c0 01          	add    $0x1,%eax
    add2:	67 66 89 45 c0       	mov    %eax,-0x40(%ebp)
    add7:	67 66 83 45 bc 04    	addl   $0x4,-0x44(%ebp)
    addd:	67 66 8b 45 bc       	mov    -0x44(%ebp),%eax
    ade2:	67 66 8b 40 fc       	mov    -0x4(%eax),%eax
    ade7:	67 66 89 45 d8       	mov    %eax,-0x28(%ebp)
    adec:	67 66 83 7d d8 00    	cmpl   $0x0,-0x28(%ebp)
    adf2:	79 09                	jns    adfd <vsprintf+0x1bf>
    adf4:	67 66 c7 45 d8 00 00 	movl   $0x0,-0x28(%ebp)
    adfb:	00 00 
    adfd:	67 66 c7 45 d4 ff ff 	movl   $0xffffffff,-0x2c(%ebp)
    ae04:	ff ff 
    ae06:	67 66 8b 45 c0       	mov    -0x40(%ebp),%eax
    ae0b:	67 66 0f b6 00       	movzbl (%eax),%eax
    ae10:	3c 68                	cmp    $0x68,%al
    ae12:	74 1c                	je     ae30 <vsprintf+0x1f2>
    ae14:	67 66 8b 45 c0       	mov    -0x40(%ebp),%eax
    ae19:	67 66 0f b6 00       	movzbl (%eax),%eax
    ae1e:	3c 6c                	cmp    $0x6c,%al
    ae20:	74 0e                	je     ae30 <vsprintf+0x1f2>
    ae22:	67 66 8b 45 c0       	mov    -0x40(%ebp),%eax
    ae27:	67 66 0f b6 00       	movzbl (%eax),%eax
    ae2c:	3c 4c                	cmp    $0x4c,%al
    ae2e:	75 21                	jne    ae51 <vsprintf+0x213>
    ae30:	67 66 8b 45 c0       	mov    -0x40(%ebp),%eax
    ae35:	67 66 0f b6 00       	movzbl (%eax),%eax
    ae3a:	66 0f be c0          	movsbl %al,%eax
    ae3e:	67 66 89 45 d4       	mov    %eax,-0x2c(%ebp)
    ae43:	67 66 8b 45 c0       	mov    -0x40(%ebp),%eax
    ae48:	66 83 c0 01          	add    $0x1,%eax
    ae4c:	67 66 89 45 c0       	mov    %eax,-0x40(%ebp)
    ae51:	67 66 c7 45 ec 0a 00 	movl   $0xa,-0x14(%ebp)
    ae58:	00 00 
    ae5a:	67 66 8b 45 c0       	mov    -0x40(%ebp),%eax
    ae5f:	67 66 0f b6 00       	movzbl (%eax),%eax
    ae64:	66 0f be c0          	movsbl %al,%eax
    ae68:	66 83 e8 25          	sub    $0x25,%eax
    ae6c:	66 83 f8 53          	cmp    $0x53,%eax
    ae70:	0f 87 57 02          	ja     b0cb <vsprintf+0x48d>
    ae74:	67 66 8b 04 85 3c b7 	mov    0xb73c(,%eax,4),%eax
    ae7b:	00 00 
    ae7d:	66 ff e0             	jmpl   *%eax
    ae80:	67 66 8b 45 e0       	mov    -0x20(%ebp),%eax
    ae85:	66 83 e0 10          	and    $0x10,%eax
    ae89:	66 85 c0             	test   %eax,%eax
    ae8c:	75 23                	jne    aeb1 <vsprintf+0x273>
    ae8e:	eb 13                	jmp    aea3 <vsprintf+0x265>
    ae90:	67 66 8b 45 e8       	mov    -0x18(%ebp),%eax
    ae95:	67 66 8d 50 01       	lea    0x1(%eax),%edx
    ae9a:	67 66 89 55 e8       	mov    %edx,-0x18(%ebp)
    ae9f:	67 c6 00 20          	movb   $0x20,(%eax)
    aea3:	67 66 83 6d dc 01    	subl   $0x1,-0x24(%ebp)
    aea9:	67 66 83 7d dc 00    	cmpl   $0x0,-0x24(%ebp)
    aeaf:	7f df                	jg     ae90 <vsprintf+0x252>
    aeb1:	67 66 8b 45 e8       	mov    -0x18(%ebp),%eax
    aeb6:	67 66 8d 50 01       	lea    0x1(%eax),%edx
    aebb:	67 66 89 55 e8       	mov    %edx,-0x18(%ebp)
    aec0:	67 66 83 45 bc 04    	addl   $0x4,-0x44(%ebp)
    aec6:	67 66 8b 55 bc       	mov    -0x44(%ebp),%edx
    aecb:	66 83 ea 04          	sub    $0x4,%edx
    aecf:	67 66 8b 12          	mov    (%edx),%edx
    aed3:	67 88 10             	mov    %dl,(%eax)
    aed6:	eb 13                	jmp    aeeb <vsprintf+0x2ad>
    aed8:	67 66 8b 45 e8       	mov    -0x18(%ebp),%eax
    aedd:	67 66 8d 50 01       	lea    0x1(%eax),%edx
    aee2:	67 66 89 55 e8       	mov    %edx,-0x18(%ebp)
    aee7:	67 c6 00 20          	movb   $0x20,(%eax)
    aeeb:	67 66 83 6d dc 01    	subl   $0x1,-0x24(%ebp)
    aef1:	67 66 83 7d dc 00    	cmpl   $0x0,-0x24(%ebp)
    aef7:	7f df                	jg     aed8 <vsprintf+0x29a>
    aef9:	e9 f4 02             	jmp    b1f0 <vsprintf+0x5b2>
    aefc:	67 66 83 45 bc 04    	addl   $0x4,-0x44(%ebp)
    af02:	67 66 8b 45 bc       	mov    -0x44(%ebp),%eax
    af07:	67 66 8b 40 fc       	mov    -0x4(%eax),%eax
    af0c:	67 66 89 45 e4       	mov    %eax,-0x1c(%ebp)
    af11:	67 66 8b 55 d8       	mov    -0x28(%ebp),%edx
    af16:	67 66 8b 45 e4       	mov    -0x1c(%ebp),%eax
    af1b:	66 e8 94 03 00 00    	calll  b2b5 <strnlen>
    af21:	67 66 89 45 d0       	mov    %eax,-0x30(%ebp)
    af26:	67 66 8b 45 e0       	mov    -0x20(%ebp),%eax
    af2b:	66 83 e0 10          	and    $0x10,%eax
    af2f:	66 85 c0             	test   %eax,%eax
    af32:	75 2b                	jne    af5f <vsprintf+0x321>
    af34:	eb 13                	jmp    af49 <vsprintf+0x30b>
    af36:	67 66 8b 45 e8       	mov    -0x18(%ebp),%eax
    af3b:	67 66 8d 50 01       	lea    0x1(%eax),%edx
    af40:	67 66 89 55 e8       	mov    %edx,-0x18(%ebp)
    af45:	67 c6 00 20          	movb   $0x20,(%eax)
    af49:	67 66 8b 45 dc       	mov    -0x24(%ebp),%eax
    af4e:	67 66 8d 50 ff       	lea    -0x1(%eax),%edx
    af53:	67 66 89 55 dc       	mov    %edx,-0x24(%ebp)
    af58:	67 66 3b 45 d0       	cmp    -0x30(%ebp),%eax
    af5d:	7f d7                	jg     af36 <vsprintf+0x2f8>
    af5f:	67 66 c7 45 f0 00 00 	movl   $0x0,-0x10(%ebp)
    af66:	00 00 
    af68:	eb 2c                	jmp    af96 <vsprintf+0x358>
    af6a:	67 66 8b 45 e8       	mov    -0x18(%ebp),%eax
    af6f:	67 66 8d 50 01       	lea    0x1(%eax),%edx
    af74:	67 66 89 55 e8       	mov    %edx,-0x18(%ebp)
    af79:	67 66 8b 55 e4       	mov    -0x1c(%ebp),%edx
    af7e:	67 66 8d 4a 01       	lea    0x1(%edx),%ecx
    af83:	67 66 89 4d e4       	mov    %ecx,-0x1c(%ebp)
    af88:	67 66 0f b6 12       	movzbl (%edx),%edx
    af8d:	67 88 10             	mov    %dl,(%eax)
    af90:	67 66 83 45 f0 01    	addl   $0x1,-0x10(%ebp)
    af96:	67 66 8b 45 f0       	mov    -0x10(%ebp),%eax
    af9b:	67 66 3b 45 d0       	cmp    -0x30(%ebp),%eax
    afa0:	7c c8                	jl     af6a <vsprintf+0x32c>
    afa2:	eb 13                	jmp    afb7 <vsprintf+0x379>
    afa4:	67 66 8b 45 e8       	mov    -0x18(%ebp),%eax
    afa9:	67 66 8d 50 01       	lea    0x1(%eax),%edx
    afae:	67 66 89 55 e8       	mov    %edx,-0x18(%ebp)
    afb3:	67 c6 00 20          	movb   $0x20,(%eax)
    afb7:	67 66 8b 45 dc       	mov    -0x24(%ebp),%eax
    afbc:	67 66 8d 50 ff       	lea    -0x1(%eax),%edx
    afc1:	67 66 89 55 dc       	mov    %edx,-0x24(%ebp)
    afc6:	67 66 3b 45 d0       	cmp    -0x30(%ebp),%eax
    afcb:	7f d7                	jg     afa4 <vsprintf+0x366>
    afcd:	e9 20 02             	jmp    b1f0 <vsprintf+0x5b2>
    afd0:	67 66 83 7d dc ff    	cmpl   $0xffffffff,-0x24(%ebp)
    afd6:	75 0f                	jne    afe7 <vsprintf+0x3a9>
    afd8:	67 66 c7 45 dc 08 00 	movl   $0x8,-0x24(%ebp)
    afdf:	00 00 
    afe1:	67 66 83 4d e0 01    	orl    $0x1,-0x20(%ebp)
    afe7:	67 66 83 45 bc 04    	addl   $0x4,-0x44(%ebp)
    afed:	67 66 8b 45 bc       	mov    -0x44(%ebp),%eax
    aff2:	66 83 e8 04          	sub    $0x4,%eax
    aff6:	67 66 8b 00          	mov    (%eax),%eax
    affa:	66 89 c2             	mov    %eax,%edx
    affd:	67 66 8b 45 e8       	mov    -0x18(%ebp),%eax
    b002:	66 83 ec 04          	sub    $0x4,%esp
    b006:	67 66 ff 75 e0       	pushl  -0x20(%ebp)
    b00b:	67 66 ff 75 d8       	pushl  -0x28(%ebp)
    b010:	67 66 ff 75 dc       	pushl  -0x24(%ebp)
    b015:	66 b9 10 00 00 00    	mov    $0x10,%ecx
    b01b:	66 e8 e2 f8 ff ff    	calll  a903 <number>
    b021:	66 83 c4 10          	add    $0x10,%esp
    b025:	67 66 89 45 e8       	mov    %eax,-0x18(%ebp)
    b02a:	e9 c3 01             	jmp    b1f0 <vsprintf+0x5b2>
    b02d:	67 66 83 7d d4 6c    	cmpl   $0x6c,-0x2c(%ebp)
    b033:	75 2e                	jne    b063 <vsprintf+0x425>
    b035:	67 66 83 45 bc 04    	addl   $0x4,-0x44(%ebp)
    b03b:	67 66 8b 45 bc       	mov    -0x44(%ebp),%eax
    b040:	67 66 8b 40 fc       	mov    -0x4(%eax),%eax
    b045:	67 66 89 45 cc       	mov    %eax,-0x34(%ebp)
    b04a:	67 66 8b 55 e8       	mov    -0x18(%ebp),%edx
    b04f:	67 66 8b 45 c4       	mov    -0x3c(%ebp),%eax
    b054:	66 29 c2             	sub    %eax,%edx
    b057:	67 66 8b 45 cc       	mov    -0x34(%ebp),%eax
    b05c:	67 66 89 10          	mov    %edx,(%eax)
    b060:	e9 8d 01             	jmp    b1f0 <vsprintf+0x5b2>
    b063:	67 66 83 45 bc 04    	addl   $0x4,-0x44(%ebp)
    b069:	67 66 8b 45 bc       	mov    -0x44(%ebp),%eax
    b06e:	67 66 8b 40 fc       	mov    -0x4(%eax),%eax
    b073:	67 66 89 45 c8       	mov    %eax,-0x38(%ebp)
    b078:	67 66 8b 55 e8       	mov    -0x18(%ebp),%edx
    b07d:	67 66 8b 45 c4       	mov    -0x3c(%ebp),%eax
    b082:	66 29 c2             	sub    %eax,%edx
    b085:	67 66 8b 45 c8       	mov    -0x38(%ebp),%eax
    b08a:	67 66 89 10          	mov    %edx,(%eax)
    b08e:	e9 5f 01             	jmp    b1f0 <vsprintf+0x5b2>
    b091:	67 66 8b 45 e8       	mov    -0x18(%ebp),%eax
    b096:	67 66 8d 50 01       	lea    0x1(%eax),%edx
    b09b:	67 66 89 55 e8       	mov    %edx,-0x18(%ebp)
    b0a0:	67 c6 00 25          	movb   $0x25,(%eax)
    b0a4:	e9 49 01             	jmp    b1f0 <vsprintf+0x5b2>
    b0a7:	67 66 c7 45 ec 08 00 	movl   $0x8,-0x14(%ebp)
    b0ae:	00 00 
    b0b0:	eb 6b                	jmp    b11d <vsprintf+0x4df>
    b0b2:	67 66 83 4d e0 20    	orl    $0x20,-0x20(%ebp)
    b0b8:	67 66 c7 45 ec 10 00 	movl   $0x10,-0x14(%ebp)
    b0bf:	00 00 
    b0c1:	eb 5a                	jmp    b11d <vsprintf+0x4df>
    b0c3:	67 66 83 4d e0 02    	orl    $0x2,-0x20(%ebp)
    b0c9:	eb 51                	jmp    b11c <vsprintf+0x4de>
    b0cb:	67 66 8b 45 e8       	mov    -0x18(%ebp),%eax
    b0d0:	67 66 8d 50 01       	lea    0x1(%eax),%edx
    b0d5:	67 66 89 55 e8       	mov    %edx,-0x18(%ebp)
    b0da:	67 c6 00 25          	movb   $0x25,(%eax)
    b0de:	67 66 8b 45 c0       	mov    -0x40(%ebp),%eax
    b0e3:	67 66 0f b6 00       	movzbl (%eax),%eax
    b0e8:	84 c0                	test   %al,%al
    b0ea:	74 1f                	je     b10b <vsprintf+0x4cd>
    b0ec:	67 66 8b 45 e8       	mov    -0x18(%ebp),%eax
    b0f1:	67 66 8d 50 01       	lea    0x1(%eax),%edx
    b0f6:	67 66 89 55 e8       	mov    %edx,-0x18(%ebp)
    b0fb:	67 66 8b 55 c0       	mov    -0x40(%ebp),%edx
    b100:	67 66 0f b6 12       	movzbl (%edx),%edx
    b105:	67 88 10             	mov    %dl,(%eax)
    b108:	e9 e5 00             	jmp    b1f0 <vsprintf+0x5b2>
    b10b:	67 66 8b 45 c0       	mov    -0x40(%ebp),%eax
    b110:	66 83 e8 01          	sub    $0x1,%eax
    b114:	67 66 89 45 c0       	mov    %eax,-0x40(%ebp)
    b119:	e9 d4 00             	jmp    b1f0 <vsprintf+0x5b2>
    b11c:	90                   	nop
    b11d:	67 66 83 7d d4 6c    	cmpl   $0x6c,-0x2c(%ebp)
    b123:	75 18                	jne    b13d <vsprintf+0x4ff>
    b125:	67 66 83 45 bc 04    	addl   $0x4,-0x44(%ebp)
    b12b:	67 66 8b 45 bc       	mov    -0x44(%ebp),%eax
    b130:	67 66 8b 40 fc       	mov    -0x4(%eax),%eax
    b135:	67 66 89 45 f4       	mov    %eax,-0xc(%ebp)
    b13a:	e9 82 00             	jmp    b1bf <vsprintf+0x581>
    b13d:	67 66 83 7d d4 68    	cmpl   $0x68,-0x2c(%ebp)
    b143:	75 3a                	jne    b17f <vsprintf+0x541>
    b145:	67 66 83 45 bc 04    	addl   $0x4,-0x44(%ebp)
    b14b:	67 66 8b 45 bc       	mov    -0x44(%ebp),%eax
    b150:	66 83 e8 04          	sub    $0x4,%eax
    b154:	67 66 8b 00          	mov    (%eax),%eax
    b158:	66 25 ff ff 00 00    	and    $0xffff,%eax
    b15e:	67 66 89 45 f4       	mov    %eax,-0xc(%ebp)
    b163:	67 66 8b 45 e0       	mov    -0x20(%ebp),%eax
    b168:	66 83 e0 02          	and    $0x2,%eax
    b16c:	66 85 c0             	test   %eax,%eax
    b16f:	74 4e                	je     b1bf <vsprintf+0x581>
    b171:	67 66 8b 45 f4       	mov    -0xc(%ebp),%eax
    b176:	66 98                	cwtl   
    b178:	67 66 89 45 f4       	mov    %eax,-0xc(%ebp)
    b17d:	eb 40                	jmp    b1bf <vsprintf+0x581>
    b17f:	67 66 8b 45 e0       	mov    -0x20(%ebp),%eax
    b184:	66 83 e0 02          	and    $0x2,%eax
    b188:	66 85 c0             	test   %eax,%eax
    b18b:	74 1a                	je     b1a7 <vsprintf+0x569>
    b18d:	67 66 83 45 bc 04    	addl   $0x4,-0x44(%ebp)
    b193:	67 66 8b 45 bc       	mov    -0x44(%ebp),%eax
    b198:	66 83 e8 04          	sub    $0x4,%eax
    b19c:	67 66 8b 00          	mov    (%eax),%eax
    b1a0:	67 66 89 45 f4       	mov    %eax,-0xc(%ebp)
    b1a5:	eb 18                	jmp    b1bf <vsprintf+0x581>
    b1a7:	67 66 83 45 bc 04    	addl   $0x4,-0x44(%ebp)
    b1ad:	67 66 8b 45 bc       	mov    -0x44(%ebp),%eax
    b1b2:	66 83 e8 04          	sub    $0x4,%eax
    b1b6:	67 66 8b 00          	mov    (%eax),%eax
    b1ba:	67 66 89 45 f4       	mov    %eax,-0xc(%ebp)
    b1bf:	67 66 8b 55 f4       	mov    -0xc(%ebp),%edx
    b1c4:	67 66 8b 4d ec       	mov    -0x14(%ebp),%ecx
    b1c9:	67 66 8b 45 e8       	mov    -0x18(%ebp),%eax
    b1ce:	66 83 ec 04          	sub    $0x4,%esp
    b1d2:	67 66 ff 75 e0       	pushl  -0x20(%ebp)
    b1d7:	67 66 ff 75 d8       	pushl  -0x28(%ebp)
    b1dc:	67 66 ff 75 dc       	pushl  -0x24(%ebp)
    b1e1:	66 e8 1c f7 ff ff    	calll  a903 <number>
    b1e7:	66 83 c4 10          	add    $0x10,%esp
    b1eb:	67 66 89 45 e8       	mov    %eax,-0x18(%ebp)
    b1f0:	67 66 8b 45 c0       	mov    -0x40(%ebp),%eax
    b1f5:	66 83 c0 01          	add    $0x1,%eax
    b1f9:	67 66 89 45 c0       	mov    %eax,-0x40(%ebp)
    b1fe:	67 66 8b 45 c0       	mov    -0x40(%ebp),%eax
    b203:	67 66 0f b6 00       	movzbl (%eax),%eax
    b208:	84 c0                	test   %al,%al
    b20a:	0f 85 55 fa          	jne    ac63 <vsprintf+0x25>
    b20e:	67 66 8b 45 e8       	mov    -0x18(%ebp),%eax
    b213:	67 c6 00 00          	movb   $0x0,(%eax)
    b217:	67 66 8b 55 e8       	mov    -0x18(%ebp),%edx
    b21c:	67 66 8b 45 c4       	mov    -0x3c(%ebp),%eax
    b221:	66 29 c2             	sub    %eax,%edx
    b224:	66 89 d0             	mov    %edx,%eax
    b227:	66 c9                	leavel 
    b229:	66 c3                	retl   

0000b22b <sprintf>:
    b22b:	66 55                	push   %ebp
    b22d:	66 89 e5             	mov    %esp,%ebp
    b230:	66 83 ec 18          	sub    $0x18,%esp
    b234:	67 66 8d 45 0c       	lea    0xc(%ebp),%eax
    b239:	66 83 c0 04          	add    $0x4,%eax
    b23d:	67 66 89 45 f4       	mov    %eax,-0xc(%ebp)
    b242:	67 66 8b 45 0c       	mov    0xc(%ebp),%eax
    b247:	67 66 8b 55 f4       	mov    -0xc(%ebp),%edx
    b24c:	66 89 d1             	mov    %edx,%ecx
    b24f:	66 89 c2             	mov    %eax,%edx
    b252:	67 66 8b 45 08       	mov    0x8(%ebp),%eax
    b257:	66 e8 e1 f9 ff ff    	calll  ac3e <vsprintf>
    b25d:	67 66 89 45 f0       	mov    %eax,-0x10(%ebp)
    b262:	67 66 8b 45 f0       	mov    -0x10(%ebp),%eax
    b267:	66 c9                	leavel 
    b269:	66 c3                	retl   

0000b26b <printf>:
    b26b:	66 55                	push   %ebp
    b26d:	66 89 e5             	mov    %esp,%ebp
    b270:	66 81 ec 18 04 00 00 	sub    $0x418,%esp
    b277:	67 66 8d 45 0c       	lea    0xc(%ebp),%eax
    b27c:	67 66 89 45 f4       	mov    %eax,-0xc(%ebp)
    b281:	67 66 8b 55 08       	mov    0x8(%ebp),%edx
    b286:	67 66 8b 4d f4       	mov    -0xc(%ebp),%ecx
    b28b:	67 66 8d 85 f0 fb ff 	lea    -0x410(%ebp),%eax
    b292:	ff 
    b293:	66 e8 a5 f9 ff ff    	calll  ac3e <vsprintf>
    b299:	67 66 89 45 f0       	mov    %eax,-0x10(%ebp)
    b29e:	67 66 8d 85 f0 fb ff 	lea    -0x410(%ebp),%eax
    b2a5:	ff 
    b2a6:	66 e8 4f cb ff ff    	calll  7dfb <puts>
    b2ac:	67 66 8b 45 f0       	mov    -0x10(%ebp),%eax
    b2b1:	66 c9                	leavel 
    b2b3:	66 c3                	retl   

0000b2b5 <strnlen>:
    b2b5:	66 55                	push   %ebp
    b2b7:	66 89 e5             	mov    %esp,%ebp
    b2ba:	66 83 ec 18          	sub    $0x18,%esp
    b2be:	67 66 89 45 ec       	mov    %eax,-0x14(%ebp)
    b2c3:	67 66 89 55 e8       	mov    %edx,-0x18(%ebp)
    b2c8:	67 66 8b 45 ec       	mov    -0x14(%ebp),%eax
    b2cd:	67 66 89 45 fc       	mov    %eax,-0x4(%ebp)
    b2d2:	eb 0c                	jmp    b2e0 <strnlen+0x2b>
    b2d4:	67 66 83 45 fc 01    	addl   $0x1,-0x4(%ebp)
    b2da:	67 66 83 6d e8 01    	subl   $0x1,-0x18(%ebp)
    b2e0:	67 66 8b 45 fc       	mov    -0x4(%ebp),%eax
    b2e5:	67 66 0f b6 00       	movzbl (%eax),%eax
    b2ea:	84 c0                	test   %al,%al
    b2ec:	74 08                	je     b2f6 <strnlen+0x41>
    b2ee:	67 66 83 7d e8 00    	cmpl   $0x0,-0x18(%ebp)
    b2f4:	75 de                	jne    b2d4 <strnlen+0x1f>
    b2f6:	67 66 8b 55 fc       	mov    -0x4(%ebp),%edx
    b2fb:	67 66 8b 45 ec       	mov    -0x14(%ebp),%eax
    b300:	66 29 c2             	sub    %eax,%edx
    b303:	66 89 d0             	mov    %edx,%eax
    b306:	66 c9                	leavel 
    b308:	66 c3                	retl   

0000b30a <fill_disk_drive>:
    b30a:	66 55                	push   %ebp
    b30c:	66 89 e5             	mov    %esp,%ebp
    b30f:	66 83 ec 78          	sub    $0x78,%esp
    b313:	67 66 89 45 94       	mov    %eax,-0x6c(%ebp)
    b318:	67 66 89 55 90       	mov    %edx,-0x70(%ebp)
    b31d:	67 66 8d 45 cc       	lea    -0x34(%ebp),%eax
    b322:	66 e8 46 cf ff ff    	calll  826e <initregs>
    b328:	67 c6 45 e9 08       	movb   $0x8,-0x17(%ebp)
    b32d:	67 66 8b 45 94       	mov    -0x6c(%ebp),%eax
    b332:	67 88 45 e0          	mov    %al,-0x20(%ebp)
    b336:	67 66 8d 55 a0       	lea    -0x60(%ebp),%edx
    b33b:	67 66 8d 45 cc       	lea    -0x34(%ebp),%eax
    b340:	66 89 d1             	mov    %edx,%ecx
    b343:	66 89 c2             	mov    %eax,%edx
    b346:	66 b8 13 00 00 00    	mov    $0x13,%eax
    b34c:	66 e8 a9 cf ff ff    	calll  82fb <intcall>
    b352:	67 66 8b 45 90       	mov    -0x70(%ebp),%eax
    b357:	67 66 8b 55 94       	mov    -0x6c(%ebp),%edx
    b35c:	67 66 89 10          	mov    %edx,(%eax)
    b360:	66 b8 00 00 00 00    	mov    $0x0,%eax
    b366:	66 c9                	leavel 
    b368:	66 c3                	retl   

0000b36a <read_block>:
    b36a:	66 55                	push   %ebp
    b36c:	66 89 e5             	mov    %esp,%ebp
    b36f:	66 81 ec 88 02 00 00 	sub    $0x288,%esp
    b376:	67 66 89 85 84 fd ff 	mov    %eax,-0x27c(%ebp)
    b37d:	ff 
    b37e:	67 66 89 95 80 fd ff 	mov    %edx,-0x280(%ebp)
    b385:	ff 
    b386:	67 66 89 8d 7c fd ff 	mov    %ecx,-0x284(%ebp)
    b38d:	ff 
    b38e:	67 66 8d 45 cc       	lea    -0x34(%ebp),%eax
    b393:	66 e8 d5 ce ff ff    	calll  826e <initregs>
    b399:	67 c6 85 94 fd ff ff 	movb   $0x10,-0x26c(%ebp)
    b3a0:	10 
    b3a1:	67 c6 85 95 fd ff ff 	movb   $0x0,-0x26b(%ebp)
    b3a8:	00 
    b3a9:	67 c7 85 96 fd ff ff 	movw   $0x1,-0x26a(%ebp)
    b3b0:	01 00 
    b3b2:	67 66 8d 85 a0 fd ff 	lea    -0x260(%ebp),%eax
    b3b9:	ff 
    b3ba:	67 89 85 98 fd ff ff 	mov    %ax,-0x268(%ebp)
    b3c1:	67 c7 85 9a fd ff ff 	movw   $0x0,-0x266(%ebp)
    b3c8:	00 00 
    b3ca:	67 66 8b 85 80 fd ff 	mov    -0x280(%ebp),%eax
    b3d1:	ff 
    b3d2:	67 66 89 85 9c fd ff 	mov    %eax,-0x264(%ebp)
    b3d9:	ff 
    b3da:	67 c6 45 e9 42       	movb   $0x42,-0x17(%ebp)
    b3df:	67 66 8b 85 84 fd ff 	mov    -0x27c(%ebp),%eax
    b3e6:	ff 
    b3e7:	67 66 8b 00          	mov    (%eax),%eax
    b3eb:	67 88 45 e0          	mov    %al,-0x20(%ebp)
    b3ef:	67 66 8d 85 94 fd ff 	lea    -0x26c(%ebp),%eax
    b3f6:	ff 
    b3f7:	67 89 45 d0          	mov    %ax,-0x30(%ebp)
    b3fb:	67 66 8d 55 a0       	lea    -0x60(%ebp),%edx
    b400:	67 66 8d 45 cc       	lea    -0x34(%ebp),%eax
    b405:	66 89 d1             	mov    %edx,%ecx
    b408:	66 89 c2             	mov    %eax,%edx
    b40b:	66 b8 13 00 00 00    	mov    $0x13,%eax
    b411:	66 e8 e4 ce ff ff    	calll  82fb <intcall>
    b417:	67 66 8d 95 a0 fd ff 	lea    -0x260(%ebp),%edx
    b41e:	ff 
    b41f:	67 66 8b 85 7c fd ff 	mov    -0x284(%ebp),%eax
    b426:	ff 
    b427:	66 b9 00 02 00 00    	mov    $0x200,%ecx
    b42d:	66 e8 49 cc ff ff    	calll  807c <memcpy>
    b433:	66 b8 00 00 00 00    	mov    $0x0,%eax
    b439:	66 c9                	leavel 
    b43b:	66 c3                	retl   

0000b43d <bios_set_video_mode>:
    b43d:	66 55                	push   %ebp
    b43f:	66 89 e5             	mov    %esp,%ebp
    b442:	66 83 ec 48          	sub    $0x48,%esp
    b446:	67 88 45 c4          	mov    %al,-0x3c(%ebp)
    b44a:	67 66 8d 45 cc       	lea    -0x34(%ebp),%eax
    b44f:	66 e8 19 ce ff ff    	calll  826e <initregs>
    b455:	67 c6 45 e9 00       	movb   $0x0,-0x17(%ebp)
    b45a:	67 66 0f b6 45 c4    	movzbl -0x3c(%ebp),%eax
    b460:	67 88 45 e8          	mov    %al,-0x18(%ebp)
    b464:	67 66 8d 45 cc       	lea    -0x34(%ebp),%eax
    b469:	66 b9 00 00 00 00    	mov    $0x0,%ecx
    b46f:	66 89 c2             	mov    %eax,%edx
    b472:	66 b8 10 00 00 00    	mov    $0x10,%eax
    b478:	66 e8 7d ce ff ff    	calll  82fb <intcall>
    b47e:	90                   	nop
    b47f:	66 c9                	leavel 
    b481:	66 c3                	retl   

0000b483 <console_init>:
    b483:	66 55                	push   %ebp
    b485:	66 89 e5             	mov    %esp,%ebp
    b488:	66 83 ec 08          	sub    $0x8,%esp
    b48c:	66 b8 03 00 00 00    	mov    $0x3,%eax
    b492:	66 e8 a5 ff ff ff    	calll  b43d <bios_set_video_mode>
    b498:	90                   	nop
    b499:	66 c9                	leavel 
    b49b:	66 c3                	retl   

Disassembly of section .text32:

0000b49d <in_pm32>:
    b49d:	8e d9                	mov    %cx,%ds
    b49f:	8e c1                	mov    %cx,%es
    b4a1:	8e e1                	mov    %cx,%fs
    b4a3:	8e e9                	mov    %cx,%gs
    b4a5:	8e d1                	mov    %cx,%ss
    b4a7:	01 dc                	add    %bx,%sp
    b4a9:	0f 00 df             	ltr    %di
    b4ac:	31 c9                	xor    %cx,%cx
    b4ae:	31 d2                	xor    %dx,%dx
    b4b0:	31 db                	xor    %bx,%bx
    b4b2:	31 ed                	xor    %bp,%bp
    b4b4:	31 ff                	xor    %di,%di
    b4b6:	0f 00 d1             	lldt   %cx
    b4b9:	ff e0                	jmp    *%ax

Disassembly of section .rodata:

0000b4c0 <null_idt.1711-0x200>:
    b4c0:	72 65                	jb     b527 <in_pm32+0x8a>
    b4c2:	61                   	popa   
    b4c3:	64 20 68 65          	and    %ch,%fs:0x65(%bx,%si)
    b4c7:	72 65                	jb     b52e <in_pm32+0x91>
    b4c9:	0a 00                	or     (%bx,%si),%al
    b4cb:	42                   	inc    %dx
    b4cc:	6f                   	outsw  %ds:(%si),(%dx)
    b4cd:	6f                   	outsw  %ds:(%si),(%dx)
    b4ce:	74 69                	je     b539 <in_pm32+0x9c>
    b4d0:	6e                   	outsb  %ds:(%si),(%dx)
    b4d1:	67 2e 2e 2e 00 52 41 	cs cs add %dl,%cs:0x41(%edx)
    b4d8:	4d                   	dec    %bp
    b4d9:	00 72 65             	add    %dh,0x65(%bp,%si)
    b4dc:	73 65                	jae    b543 <in_pm32+0xa6>
    b4de:	72 76                	jb     b556 <in_pm32+0xb9>
    b4e0:	65 64 00 41 43       	gs add %al,%fs:0x43(%bx,%di)
    b4e5:	50                   	push   %ax
    b4e6:	49                   	dec    %cx
    b4e7:	20 72 65             	and    %dh,0x65(%bp,%si)
    b4ea:	63 6c 61             	arpl   %bp,0x61(%si)
    b4ed:	69 6d 61 62 6c       	imul   $0x6c62,0x61(%di),%bp
    b4f2:	65 20 6d 65          	and    %ch,%gs:0x65(%di)
    b4f6:	6d                   	insw   (%dx),%es:(%di)
    b4f7:	6f                   	outsw  %ds:(%si),(%dx)
    b4f8:	72 79                	jb     b573 <in_pm32+0xd6>
    b4fa:	00 41 43             	add    %al,0x43(%bx,%di)
    b4fd:	50                   	push   %ax
    b4fe:	49                   	dec    %cx
    b4ff:	20 4e 56             	and    %cl,0x56(%bp)
    b502:	53                   	push   %bx
    b503:	00 75 6e             	add    %dh,0x6e(%di)
    b506:	6b 6e 6f 77          	imul   $0x77,0x6f(%bp),%bp
    b50a:	6e                   	outsb  %ds:(%si),(%dx)
    b50b:	00 4d 65             	add    %cl,0x65(%di)
    b50e:	6d                   	insw   (%dx),%es:(%di)
    b50f:	6f                   	outsw  %ds:(%si),(%dx)
    b510:	72 79                	jb     b58b <in_pm32+0xee>
    b512:	20 6d 61             	and    %ch,0x61(%di)
    b515:	70 20                	jo     b537 <in_pm32+0x9a>
    b517:	28 25                	sub    %ah,(%di)
    b519:	75 20                	jne    b53b <in_pm32+0x9e>
    b51b:	72 61                	jb     b57e <in_pm32+0xe1>
    b51d:	6e                   	outsb  %ds:(%si),(%dx)
    b51e:	67 65 73 29          	addr32 gs jae b54b <in_pm32+0xae>
    b522:	3a 0a                	cmp    (%bp,%si),%cl
    b524:	00 72 65             	add    %dh,0x65(%bp,%si)
    b527:	67 69 6f 6e 20 30    	imul   $0x3020,0x6e(%edi),%bp
    b52d:	78 25                	js     b554 <in_pm32+0xb7>
    b52f:	78 2d                	js     b55e <in_pm32+0xc1>
    b531:	30 78 25             	xor    %bh,0x25(%bx,%si)
    b534:	78 20                	js     b556 <in_pm32+0xb9>
    b536:	25 73 0a             	and    $0xa73,%ax
    b539:	00 00                	add    %al,(%bx,%si)
    b53b:	00 08                	add    %cl,(%bx,%si)
    b53d:	20 08                	and    %cl,(%bx,%si)
    b53f:	00 4d 6f             	add    %cl,0x6f(%di)
    b542:	64 65 3a 20          	fs cmp %gs:(%bx,%si),%ah
    b546:	52                   	push   %dx
    b547:	65 73 6f             	gs jae b5b9 <in_pm32+0x11c>
    b54a:	6c                   	insb   (%dx),%es:(%di)
    b54b:	75 74                	jne    b5c1 <in_pm32+0x124>
    b54d:	69 6f 6e 3a 20       	imul   $0x203a,0x6e(%bx),%bp
    b552:	20 54 79             	and    %dl,0x79(%si)
    b555:	70 65                	jo     b5bc <in_pm32+0x11f>
    b557:	3a 20                	cmp    (%bx,%si),%ah
    b559:	00 25                	add    %ah,(%di)
    b55b:	64 78 25             	fs js  b583 <in_pm32+0xe6>
    b55e:	64 00 25             	add    %ah,%fs:(%di)
    b561:	64 00 25             	add    %ah,%fs:(%di)
    b564:	63 20                	arpl   %sp,(%bx,%si)
    b566:	25 30 33             	and    $0x3330,%ax
    b569:	58                   	pop    %ax
    b56a:	20 25                	and    %ah,(%di)
    b56c:	34 64                	xor    $0x64,%al
    b56e:	78 25                	js     b595 <in_pm32+0xf8>
    b570:	2d 37 73             	sub    $0x7337,%ax
    b573:	20 25                	and    %ah,(%di)
    b575:	2d 36 73             	sub    $0x7336,%ax
    b578:	00 00                	add    %al,(%bx,%si)
    b57a:	00 00                	add    %al,(%bx,%si)
    b57c:	50                   	push   %ax
    b57d:	72 65                	jb     b5e4 <in_pm32+0x147>
    b57f:	73 73                	jae    b5f4 <in_pm32+0x157>
    b581:	20 3c                	and    %bh,(%si)
    b583:	45                   	inc    %bp
    b584:	4e                   	dec    %si
    b585:	54                   	push   %sp
    b586:	45                   	inc    %bp
    b587:	52                   	push   %dx
    b588:	3e 20 74 6f          	and    %dh,%ds:0x6f(%si)
    b58c:	20 73 65             	and    %dh,0x65(%bp,%di)
    b58f:	65 20 76 69          	and    %dh,%gs:0x69(%bp)
    b593:	64 65 6f             	fs outsw %gs:(%si),(%dx)
    b596:	20 6d 6f             	and    %ch,0x6f(%di)
    b599:	64 65 20 61 76       	fs and %ah,%gs:0x76(%bx,%di)
    b59e:	61                   	popa   
    b59f:	69 6c 61 62 6c       	imul   $0x6c62,0x61(%si),%bp
    b5a4:	65 2c 20             	gs sub $0x20,%al
    b5a7:	3c 53                	cmp    $0x53,%al
    b5a9:	50                   	push   %ax
    b5aa:	41                   	inc    %cx
    b5ab:	43                   	inc    %bx
    b5ac:	45                   	inc    %bp
    b5ad:	3e 20 74 6f          	and    %dh,%ds:0x6f(%si)
    b5b1:	20 63 6f             	and    %ah,0x6f(%bp,%di)
    b5b4:	6e                   	outsb  %ds:(%si),(%dx)
    b5b5:	74 69                	je     b620 <in_pm32+0x183>
    b5b7:	6e                   	outsb  %ds:(%si),(%dx)
    b5b8:	75 65                	jne    b61f <in_pm32+0x182>
    b5ba:	2c 6f                	sub    $0x6f,%al
    b5bc:	72 20                	jb     b5de <in_pm32+0x141>
    b5be:	77 61                	ja     b621 <in_pm32+0x184>
    b5c0:	69 74 20 33 30       	imul   $0x3033,0x20(%si),%si
    b5c5:	20 73 65             	and    %dh,0x65(%bp,%di)
    b5c8:	63 0a                	arpl   %cx,(%bp,%si)
    b5ca:	00 00                	add    %al,(%bx,%si)
    b5cc:	45                   	inc    %bp
    b5cd:	6e                   	outsb  %ds:(%si),(%dx)
    b5ce:	74 65                	je     b635 <in_pm32+0x198>
    b5d0:	72 20                	jb     b5f2 <in_pm32+0x155>
    b5d2:	61                   	popa   
    b5d3:	20 76 69             	and    %dh,0x69(%bp)
    b5d6:	64 65 6f             	fs outsw %gs:(%si),(%dx)
    b5d9:	20 6d 6f             	and    %ch,0x6f(%di)
    b5dc:	64 65 20 6f 72       	fs and %ch,%gs:0x72(%bx)
    b5e1:	20 22                	and    %ah,(%bp,%si)
    b5e3:	73 63                	jae    b648 <in_pm32+0x1ab>
    b5e5:	61                   	popa   
    b5e6:	6e                   	outsb  %ds:(%si),(%dx)
    b5e7:	22 20                	and    (%bx,%si),%ah
    b5e9:	74 6f                	je     b65a <in_pm32+0x1bd>
    b5eb:	20 73 63             	and    %dh,0x63(%bp,%di)
    b5ee:	61                   	popa   
    b5ef:	6e                   	outsb  %ds:(%si),(%dx)
    b5f0:	20 66 6f             	and    %ah,0x6f(%bp)
    b5f3:	72 20                	jb     b615 <in_pm32+0x178>
    b5f5:	61                   	popa   
    b5f6:	64 64 69 74 69 6f 6e 	fs imul $0x6e6f,%fs:0x69(%si),%si
    b5fd:	61                   	popa   
    b5fe:	6c                   	insb   (%dx),%es:(%di)
    b5ff:	20 6d 6f             	and    %ch,0x6f(%di)
    b602:	64 65 3a 00          	fs cmp %gs:(%bx,%si),%al
    b606:	00 00                	add    %al,(%bx,%si)
    b608:	55                   	push   %bp
    b609:	6e                   	outsb  %ds:(%si),(%dx)
    b60a:	64 65 66 69 6e 65 64 	fs imul $0x69762064,%gs:0x65(%bp),%ebp
    b611:	20 76 69 
    b614:	64 65 6f             	fs outsw %gs:(%si),(%dx)
    b617:	20 6d 6f             	and    %ch,0x6f(%di)
    b61a:	64 65 20 6e 75       	fs and %ch,%gs:0x75(%bp)
    b61f:	6d                   	insw   (%dx),%es:(%di)
    b620:	62 65 72             	bound  %sp,0x72(%di)
    b623:	3a 20                	cmp    (%bx,%si),%ah
    b625:	25 78 0a             	and    $0xa78,%ax
    b628:	00 56 45             	add    %dl,0x45(%bp)
    b62b:	53                   	push   %bx
    b62c:	41                   	inc    %cx
    b62d:	00 00                	add    %al,(%bx,%si)
    b62f:	00 56 47             	add    %dl,0x47(%bp)
    b632:	41                   	inc    %cx
    b633:	00 7a 9f             	add    %bh,-0x61(%bp,%si)
    b636:	00 00                	add    %al,(%bx,%si)
    b638:	4b                   	dec    %bx
    b639:	9f                   	lahf   
    b63a:	00 00                	add    %al,(%bx,%si)
    b63c:	53                   	push   %bx
    b63d:	9f                   	lahf   
    b63e:	00 00                	add    %al,(%bx,%si)
    b640:	5b                   	pop    %bx
    b641:	9f                   	lahf   
    b642:	00 00                	add    %al,(%bx,%si)
    b644:	7a 9f                	jp     b5e5 <in_pm32+0x148>
    b646:	00 00                	add    %al,(%bx,%si)
    b648:	63 9f 00 00          	arpl   %bx,0x0(%bx)
    b64c:	6b 9f 00 00 73       	imul   $0x73,0x0(%bx),%bx
    b651:	9f                   	lahf   
    b652:	00 00                	add    %al,(%bx,%si)
    b654:	43                   	inc    %bx
    b655:	47                   	inc    %di
    b656:	41                   	inc    %cx
    b657:	2f                   	das    
    b658:	4d                   	dec    %bp
    b659:	44                   	inc    %sp
    b65a:	41                   	inc    %cx
    b65b:	2f                   	das    
    b65c:	48                   	dec    %ax
    b65d:	47                   	inc    %di
    b65e:	43                   	inc    %bx
    b65f:	00 45 47             	add    %al,0x47(%di)
    b662:	41                   	inc    %cx
    b663:	00 42 49             	add    %al,0x49(%bp,%si)
    b666:	4f                   	dec    %di
    b667:	53                   	push   %bx
	...
    b670:	41                   	inc    %cx
    b671:	32 30                	xor    (%bx,%si),%dh
    b673:	20 67 61             	and    %ah,0x61(%bx)
    b676:	74 65                	je     b6dd <boot_gdt.1715+0xd>
    b678:	20 6e 6f             	and    %ch,0x6f(%bp)
    b67b:	74 20                	je     b69d <in_pm32+0x200>
    b67d:	72 65                	jb     b6e4 <boot_gdt.1715+0x14>
    b67f:	73 70                	jae    b6f1 <boot_gdt.1715+0x21>
    b681:	6f                   	outsw  %ds:(%si),(%dx)
    b682:	6e                   	outsb  %ds:(%si),(%dx)
    b683:	64 69 6e 67 2c 75    	imul   $0x752c,%fs:0x67(%bp),%bp
    b689:	6e                   	outsb  %ds:(%si),(%dx)
    b68a:	61                   	popa   
    b68b:	62 6c 65             	bound  %bp,0x65(%si)
    b68e:	20 74 6f             	and    %dh,0x6f(%si)
    b691:	20 62 6f             	and    %ah,0x6f(%bp,%si)
    b694:	6f                   	outsw  %ds:(%si),(%dx)
    b695:	2e 2e 2e 0a 00       	cs cs or %cs:(%bx,%si),%al
    b69a:	49                   	dec    %cx
    b69b:	20 61 6d             	and    %ah,0x6d(%bx,%di)
    b69e:	20 70 6d             	and    %dh,0x6d(%bx,%si)
    b6a1:	20 6e 6f             	and    %ch,0x6f(%bp)
    b6a4:	77 0a                	ja     b6b0 <in_pm32+0x213>
    b6a6:	00 63 6f             	add    %ah,0x6f(%bp,%di)
    b6a9:	64 65 33 32          	fs xor %gs:(%bp,%si),%si
    b6ad:	5f                   	pop    %di
    b6ae:	73 74                	jae    b724 <boot_gdt.1715+0x54>
    b6b0:	61                   	popa   
    b6b1:	72 74                	jb     b727 <boot_gdt.1715+0x57>
    b6b3:	20 61 64             	and    %ah,0x64(%bx,%di)
    b6b6:	64 72 3a             	fs jb  b6f3 <boot_gdt.1715+0x23>
    b6b9:	20 30                	and    %dh,(%bx,%si)
    b6bb:	78 25                	js     b6e2 <boot_gdt.1715+0x12>
    b6bd:	78 0a                	js     b6c9 <null_idt.1711+0x9>
	...

0000b6c0 <null_idt.1711>:
	...

0000b6d0 <boot_gdt.1715>:
	...
    b6e0:	ff                   	(bad)  
    b6e1:	ff 00                	incw   (%bx,%si)
    b6e3:	00 00                	add    %al,(%bx,%si)
    b6e5:	9b                   	fwait
    b6e6:	cf                   	iret   
    b6e7:	00 ff                	add    %bh,%bh
    b6e9:	ff 00                	incw   (%bx,%si)
    b6eb:	00 00                	add    %al,(%bx,%si)
    b6ed:	93                   	xchg   %ax,%bx
    b6ee:	cf                   	iret   
    b6ef:	00 67 00             	add    %ah,0x0(%bx)
    b6f2:	00 10                	add    %dl,(%bx,%si)
    b6f4:	00 89 00 00          	add    %cl,0x0(%bx,%di)
    b6f8:	db ac 00 00          	fldt   0x0(%si)
    b6fc:	f3 ac                	rep lods %ds:(%si),%al
    b6fe:	00 00                	add    %al,(%bx,%si)
    b700:	f3 ac                	rep lods %ds:(%si),%al
    b702:	00 00                	add    %al,(%bx,%si)
    b704:	e3 ac                	jcxz   b6b2 <in_pm32+0x215>
    b706:	00 00                	add    %al,(%bx,%si)
    b708:	f3 ac                	rep lods %ds:(%si),%al
    b70a:	00 00                	add    %al,(%bx,%si)
    b70c:	f3 ac                	rep lods %ds:(%si),%al
    b70e:	00 00                	add    %al,(%bx,%si)
    b710:	f3 ac                	rep lods %ds:(%si),%al
    b712:	00 00                	add    %al,(%bx,%si)
    b714:	f3 ac                	rep lods %ds:(%si),%al
    b716:	00 00                	add    %al,(%bx,%si)
    b718:	f3 ac                	rep lods %ds:(%si),%al
    b71a:	00 00                	add    %al,(%bx,%si)
    b71c:	f3 ac                	rep lods %ds:(%si),%al
    b71e:	00 00                	add    %al,(%bx,%si)
    b720:	f3 ac                	rep lods %ds:(%si),%al
    b722:	00 00                	add    %al,(%bx,%si)
    b724:	d3 ac 00 00          	shrw   %cl,0x0(%si)
    b728:	f3 ac                	rep lods %ds:(%si),%al
    b72a:	00 00                	add    %al,(%bx,%si)
    b72c:	cb                   	lret   
    b72d:	ac                   	lods   %ds:(%si),%al
    b72e:	00 00                	add    %al,(%bx,%si)
    b730:	f3 ac                	rep lods %ds:(%si),%al
    b732:	00 00                	add    %al,(%bx,%si)
    b734:	f3 ac                	rep lods %ds:(%si),%al
    b736:	00 00                	add    %al,(%bx,%si)
    b738:	eb ac                	jmp    b6e6 <boot_gdt.1715+0x16>
    b73a:	00 00                	add    %al,(%bx,%si)
    b73c:	91                   	xchg   %ax,%cx
    b73d:	b0 00                	mov    $0x0,%al
    b73f:	00 cb                	add    %cl,%bl
    b741:	b0 00                	mov    $0x0,%al
    b743:	00 cb                	add    %cl,%bl
    b745:	b0 00                	mov    $0x0,%al
    b747:	00 cb                	add    %cl,%bl
    b749:	b0 00                	mov    $0x0,%al
    b74b:	00 cb                	add    %cl,%bl
    b74d:	b0 00                	mov    $0x0,%al
    b74f:	00 cb                	add    %cl,%bl
    b751:	b0 00                	mov    $0x0,%al
    b753:	00 cb                	add    %cl,%bl
    b755:	b0 00                	mov    $0x0,%al
    b757:	00 cb                	add    %cl,%bl
    b759:	b0 00                	mov    $0x0,%al
    b75b:	00 cb                	add    %cl,%bl
    b75d:	b0 00                	mov    $0x0,%al
    b75f:	00 cb                	add    %cl,%bl
    b761:	b0 00                	mov    $0x0,%al
    b763:	00 cb                	add    %cl,%bl
    b765:	b0 00                	mov    $0x0,%al
    b767:	00 cb                	add    %cl,%bl
    b769:	b0 00                	mov    $0x0,%al
    b76b:	00 cb                	add    %cl,%bl
    b76d:	b0 00                	mov    $0x0,%al
    b76f:	00 cb                	add    %cl,%bl
    b771:	b0 00                	mov    $0x0,%al
    b773:	00 cb                	add    %cl,%bl
    b775:	b0 00                	mov    $0x0,%al
    b777:	00 cb                	add    %cl,%bl
    b779:	b0 00                	mov    $0x0,%al
    b77b:	00 cb                	add    %cl,%bl
    b77d:	b0 00                	mov    $0x0,%al
    b77f:	00 cb                	add    %cl,%bl
    b781:	b0 00                	mov    $0x0,%al
    b783:	00 cb                	add    %cl,%bl
    b785:	b0 00                	mov    $0x0,%al
    b787:	00 cb                	add    %cl,%bl
    b789:	b0 00                	mov    $0x0,%al
    b78b:	00 cb                	add    %cl,%bl
    b78d:	b0 00                	mov    $0x0,%al
    b78f:	00 cb                	add    %cl,%bl
    b791:	b0 00                	mov    $0x0,%al
    b793:	00 cb                	add    %cl,%bl
    b795:	b0 00                	mov    $0x0,%al
    b797:	00 cb                	add    %cl,%bl
    b799:	b0 00                	mov    $0x0,%al
    b79b:	00 cb                	add    %cl,%bl
    b79d:	b0 00                	mov    $0x0,%al
    b79f:	00 cb                	add    %cl,%bl
    b7a1:	b0 00                	mov    $0x0,%al
    b7a3:	00 cb                	add    %cl,%bl
    b7a5:	b0 00                	mov    $0x0,%al
    b7a7:	00 cb                	add    %cl,%bl
    b7a9:	b0 00                	mov    $0x0,%al
    b7ab:	00 cb                	add    %cl,%bl
    b7ad:	b0 00                	mov    $0x0,%al
    b7af:	00 cb                	add    %cl,%bl
    b7b1:	b0 00                	mov    $0x0,%al
    b7b3:	00 cb                	add    %cl,%bl
    b7b5:	b0 00                	mov    $0x0,%al
    b7b7:	00 cb                	add    %cl,%bl
    b7b9:	b0 00                	mov    $0x0,%al
    b7bb:	00 cb                	add    %cl,%bl
    b7bd:	b0 00                	mov    $0x0,%al
    b7bf:	00 cb                	add    %cl,%bl
    b7c1:	b0 00                	mov    $0x0,%al
    b7c3:	00 cb                	add    %cl,%bl
    b7c5:	b0 00                	mov    $0x0,%al
    b7c7:	00 cb                	add    %cl,%bl
    b7c9:	b0 00                	mov    $0x0,%al
    b7cb:	00 cb                	add    %cl,%bl
    b7cd:	b0 00                	mov    $0x0,%al
    b7cf:	00 cb                	add    %cl,%bl
    b7d1:	b0 00                	mov    $0x0,%al
    b7d3:	00 cb                	add    %cl,%bl
    b7d5:	b0 00                	mov    $0x0,%al
    b7d7:	00 cb                	add    %cl,%bl
    b7d9:	b0 00                	mov    $0x0,%al
    b7db:	00 cb                	add    %cl,%bl
    b7dd:	b0 00                	mov    $0x0,%al
    b7df:	00 cb                	add    %cl,%bl
    b7e1:	b0 00                	mov    $0x0,%al
    b7e3:	00 cb                	add    %cl,%bl
    b7e5:	b0 00                	mov    $0x0,%al
    b7e7:	00 cb                	add    %cl,%bl
    b7e9:	b0 00                	mov    $0x0,%al
    b7eb:	00 cb                	add    %cl,%bl
    b7ed:	b0 00                	mov    $0x0,%al
    b7ef:	00 cb                	add    %cl,%bl
    b7f1:	b0 00                	mov    $0x0,%al
    b7f3:	00 cb                	add    %cl,%bl
    b7f5:	b0 00                	mov    $0x0,%al
    b7f7:	00 cb                	add    %cl,%bl
    b7f9:	b0 00                	mov    $0x0,%al
    b7fb:	00 cb                	add    %cl,%bl
    b7fd:	b0 00                	mov    $0x0,%al
    b7ff:	00 cb                	add    %cl,%bl
    b801:	b0 00                	mov    $0x0,%al
    b803:	00 cb                	add    %cl,%bl
    b805:	b0 00                	mov    $0x0,%al
    b807:	00 b8 b0 00          	add    %bh,0xb0(%bx,%si)
    b80b:	00 cb                	add    %cl,%bl
    b80d:	b0 00                	mov    $0x0,%al
    b80f:	00 cb                	add    %cl,%bl
    b811:	b0 00                	mov    $0x0,%al
    b813:	00 cb                	add    %cl,%bl
    b815:	b0 00                	mov    $0x0,%al
    b817:	00 cb                	add    %cl,%bl
    b819:	b0 00                	mov    $0x0,%al
    b81b:	00 cb                	add    %cl,%bl
    b81d:	b0 00                	mov    $0x0,%al
    b81f:	00 cb                	add    %cl,%bl
    b821:	b0 00                	mov    $0x0,%al
    b823:	00 cb                	add    %cl,%bl
    b825:	b0 00                	mov    $0x0,%al
    b827:	00 cb                	add    %cl,%bl
    b829:	b0 00                	mov    $0x0,%al
    b82b:	00 cb                	add    %cl,%bl
    b82d:	b0 00                	mov    $0x0,%al
    b82f:	00 cb                	add    %cl,%bl
    b831:	b0 00                	mov    $0x0,%al
    b833:	00 80 ae 00          	add    %al,0xae(%bx,%si)
    b837:	00 c3                	add    %al,%bl
    b839:	b0 00                	mov    $0x0,%al
    b83b:	00 cb                	add    %cl,%bl
    b83d:	b0 00                	mov    $0x0,%al
    b83f:	00 cb                	add    %cl,%bl
    b841:	b0 00                	mov    $0x0,%al
    b843:	00 cb                	add    %cl,%bl
    b845:	b0 00                	mov    $0x0,%al
    b847:	00 cb                	add    %cl,%bl
    b849:	b0 00                	mov    $0x0,%al
    b84b:	00 c3                	add    %al,%bl
    b84d:	b0 00                	mov    $0x0,%al
    b84f:	00 cb                	add    %cl,%bl
    b851:	b0 00                	mov    $0x0,%al
    b853:	00 cb                	add    %cl,%bl
    b855:	b0 00                	mov    $0x0,%al
    b857:	00 cb                	add    %cl,%bl
    b859:	b0 00                	mov    $0x0,%al
    b85b:	00 cb                	add    %cl,%bl
    b85d:	b0 00                	mov    $0x0,%al
    b85f:	00 2d                	add    %ch,(%di)
    b861:	b0 00                	mov    $0x0,%al
    b863:	00 a7 b0 00          	add    %ah,0xb0(%bx)
    b867:	00 d0                	add    %dl,%al
    b869:	af                   	scas   %es:(%di),%ax
    b86a:	00 00                	add    %al,(%bx,%si)
    b86c:	cb                   	lret   
    b86d:	b0 00                	mov    $0x0,%al
    b86f:	00 cb                	add    %cl,%bl
    b871:	b0 00                	mov    $0x0,%al
    b873:	00 fc                	add    %bh,%ah
    b875:	ae                   	scas   %es:(%di),%al
    b876:	00 00                	add    %al,(%bx,%si)
    b878:	cb                   	lret   
    b879:	b0 00                	mov    $0x0,%al
    b87b:	00 1c                	add    %bl,(%si)
    b87d:	b1 00                	mov    $0x0,%cl
    b87f:	00 cb                	add    %cl,%bl
    b881:	b0 00                	mov    $0x0,%al
    b883:	00 cb                	add    %cl,%bl
    b885:	b0 00                	mov    $0x0,%al
    b887:	00 b2 b0 00          	add    %dh,0xb0(%bp,%si)
	...

0000b88c <digits.1714>:
    b88c:	30 31                	xor    %dh,(%bx,%di)
    b88e:	32 33                	xor    (%bp,%di),%dh
    b890:	34 35                	xor    $0x35,%al
    b892:	36 37                	ss aaa 
    b894:	38 39                	cmp    %bh,(%bx,%di)
    b896:	41                   	inc    %cx
    b897:	42                   	inc    %dx
    b898:	43                   	inc    %bx
    b899:	44                   	inc    %sp
    b89a:	45                   	inc    %bp
    b89b:	46                   	inc    %si

Disassembly of section .eh_frame:

0000b89c <.eh_frame>:
    b89c:	14 00                	adc    $0x0,%al
    b89e:	00 00                	add    %al,(%bx,%si)
    b8a0:	00 00                	add    %al,(%bx,%si)
    b8a2:	00 00                	add    %al,(%bx,%si)
    b8a4:	01 7a 52             	add    %di,0x52(%bp,%si)
    b8a7:	00 01                	add    %al,(%bx,%di)
    b8a9:	7c 08                	jl     b8b3 <digits.1714+0x27>
    b8ab:	01 1b                	add    %bx,(%bp,%di)
    b8ad:	0c 04                	or     $0x4,%al
    b8af:	04 88                	add    $0x88,%al
    b8b1:	01 00                	add    %ax,(%bx,%si)
    b8b3:	00 24                	add    %ah,(%si)
    b8b5:	00 00                	add    %al,(%bx,%si)
    b8b7:	00 1c                	add    %bl,(%si)
    b8b9:	00 00                	add    %al,(%bx,%si)
    b8bb:	00 80 c5 ff          	add    %al,-0x3b(%bx,%si)
    b8bf:	ff 40 02             	incw   0x2(%bx,%si)
    b8c2:	00 00                	add    %al,(%bx,%si)
    b8c4:	00 42 0e             	add    %al,0xe(%bp,%si)
    b8c7:	08 85 02 43          	or     %al,0x4302(%di)
    b8cb:	0d 05 49             	or     $0x4905,%ax
    b8ce:	87 03                	xchg   %ax,(%bp,%di)
    b8d0:	03 2e 02 c7          	add    -0x38fe,%bp
    b8d4:	42                   	inc    %dx
    b8d5:	c5 0c                	lds    (%si),%cx
    b8d7:	04 04                	add    $0x4,%al
    b8d9:	00 00                	add    %al,(%bx,%si)
    b8db:	00 18                	add    %bl,(%bx,%si)
    b8dd:	00 00                	add    %al,(%bx,%si)
    b8df:	00 44 00             	add    %al,0x0(%si)
    b8e2:	00 00                	add    %al,(%bx,%si)
    b8e4:	1c c4                	sbb    $0xc4,%al
    b8e6:	ff                   	(bad)  
    b8e7:	ff 95 00 00          	call   *0x0(%di)
    b8eb:	00 00                	add    %al,(%bx,%si)
    b8ed:	42                   	inc    %dx
    b8ee:	0e                   	push   %cs
    b8ef:	08 85 02 43          	or     %al,0x4302(%di)
    b8f3:	0d 05 00             	or     $0x5,%ax
    b8f6:	00 00                	add    %al,(%bx,%si)
    b8f8:	1c 00                	sbb    $0x0,%al
    b8fa:	00 00                	add    %al,(%bx,%si)
    b8fc:	60                   	pusha  
    b8fd:	00 00                	add    %al,(%bx,%si)
    b8ff:	00 cb                	add    %cl,%bl
    b901:	c7                   	(bad)  
    b902:	ff                   	(bad)  
    b903:	ff                   	(bad)  
    b904:	3f                   	aas    
    b905:	00 00                	add    %al,(%bx,%si)
    b907:	00 00                	add    %al,(%bx,%si)
    b909:	42                   	inc    %dx
    b90a:	0e                   	push   %cs
    b90b:	08 85 02 43          	or     %al,0x4302(%di)
    b90f:	0d 05 78             	or     $0x7805,%ax
    b912:	c5 0c                	lds    (%si),%cx
    b914:	04 04                	add    $0x4,%al
    b916:	00 00                	add    %al,(%bx,%si)
    b918:	1c 00                	sbb    $0x0,%al
    b91a:	00 00                	add    %al,(%bx,%si)
    b91c:	80 00 00             	addb   $0x0,(%bx,%si)
    b91f:	00 ea                	add    %ch,%dl
    b921:	c7                   	(bad)  
    b922:	ff                   	(bad)  
    b923:	ff 4c 00             	decw   0x0(%si)
    b926:	00 00                	add    %al,(%bx,%si)
    b928:	00 42 0e             	add    %al,0xe(%bp,%si)
    b92b:	08 85 02 43          	or     %al,0x4302(%di)
    b92f:	0d 05 02             	or     $0x205,%ax
    b932:	45                   	inc    %bp
    b933:	c5 0c                	lds    (%si),%cx
    b935:	04 04                	add    $0x4,%al
    b937:	00 1c                	add    %bl,(%si)
    b939:	00 00                	add    %al,(%bx,%si)
    b93b:	00 a0 00 00          	add    %ah,0x0(%bx,%si)
    b93f:	00 16 c8 ff          	add    %dl,-0x38
    b943:	ff 22                	jmp    *(%bp,%si)
    b945:	00 00                	add    %al,(%bx,%si)
    b947:	00 00                	add    %al,(%bx,%si)
    b949:	42                   	inc    %dx
    b94a:	0e                   	push   %cs
    b94b:	08 85 02 43          	or     %al,0x4302(%di)
    b94f:	0d 05 5b             	or     $0x5b05,%ax
    b952:	c5 0c                	lds    (%si),%cx
    b954:	04 04                	add    $0x4,%al
    b956:	00 00                	add    %al,(%bx,%si)
    b958:	1c 00                	sbb    $0x0,%al
    b95a:	00 00                	add    %al,(%bx,%si)
    b95c:	c0 00 00             	rolb   $0x0,(%bx,%si)
    b95f:	00 18                	add    %bl,(%bx,%si)
    b961:	c8 ff ff 6d          	enter  $0xffff,$0x6d
    b965:	00 00                	add    %al,(%bx,%si)
    b967:	00 00                	add    %al,(%bx,%si)
    b969:	42                   	inc    %dx
    b96a:	0e                   	push   %cs
    b96b:	08 85 02 43          	or     %al,0x4302(%di)
    b96f:	0d 05 02             	or     $0x205,%ax
    b972:	66 c5 0c             	lds    (%si),%ecx
    b975:	04 04                	add    $0x4,%al
    b977:	00 1c                	add    %bl,(%si)
    b979:	00 00                	add    %al,(%bx,%si)
    b97b:	00 e0                	add    %ah,%al
    b97d:	00 00                	add    %al,(%bx,%si)
    b97f:	00 65 c8             	add    %ah,-0x38(%di)
    b982:	ff                   	(bad)  
    b983:	ff                   	(bad)  
    b984:	3e 00 00             	add    %al,%ds:(%bx,%si)
    b987:	00 00                	add    %al,(%bx,%si)
    b989:	42                   	inc    %dx
    b98a:	0e                   	push   %cs
    b98b:	08 85 02 43          	or     %al,0x4302(%di)
    b98f:	0d 05 77             	or     $0x7705,%ax
    b992:	c5 0c                	lds    (%si),%cx
    b994:	04 04                	add    $0x4,%al
    b996:	00 00                	add    %al,(%bx,%si)
    b998:	1c 00                	sbb    $0x0,%al
    b99a:	00 00                	add    %al,(%bx,%si)
    b99c:	00 01                	add    %al,(%bx,%di)
    b99e:	00 00                	add    %al,(%bx,%si)
    b9a0:	f5                   	cmc    
    b9a1:	c3                   	ret    
    b9a2:	ff                   	(bad)  
    b9a3:	ff 66 00             	jmp    *0x0(%bp)
    b9a6:	00 00                	add    %al,(%bx,%si)
    b9a8:	00 42 0e             	add    %al,0xe(%bp,%si)
    b9ab:	08 85 02 43          	or     %al,0x4302(%di)
    b9af:	0d 05 02             	or     $0x205,%ax
    b9b2:	5f                   	pop    %di
    b9b3:	c5 0c                	lds    (%si),%cx
    b9b5:	04 04                	add    $0x4,%al
    b9b7:	00 1c                	add    %bl,(%si)
    b9b9:	00 00                	add    %al,(%bx,%si)
    b9bb:	00 20                	add    %ah,(%bx,%si)
    b9bd:	01 00                	add    %ax,(%bx,%si)
    b9bf:	00 3b                	add    %bh,(%bp,%di)
    b9c1:	c4                   	(bad)  
    b9c2:	ff                   	(bad)  
    b9c3:	ff 41 00             	incw   0x0(%bx,%di)
    b9c6:	00 00                	add    %al,(%bx,%si)
    b9c8:	00 42 0e             	add    %al,0xe(%bp,%si)
    b9cb:	08 85 02 43          	or     %al,0x4302(%di)
    b9cf:	0d 05 7a             	or     $0x7a05,%ax
    b9d2:	c5 0c                	lds    (%si),%cx
    b9d4:	04 04                	add    $0x4,%al
    b9d6:	00 00                	add    %al,(%bx,%si)
    b9d8:	1c 00                	sbb    $0x0,%al
    b9da:	00 00                	add    %al,(%bx,%si)
    b9dc:	40                   	inc    %ax
    b9dd:	01 00                	add    %ax,(%bx,%si)
    b9df:	00 43 c8             	add    %al,-0x38(%bp,%di)
    b9e2:	ff                   	(bad)  
    b9e3:	ff 19                	lcall  *(%bx,%di)
    b9e5:	00 00                	add    %al,(%bx,%si)
    b9e7:	00 00                	add    %al,(%bx,%si)
    b9e9:	42                   	inc    %dx
    b9ea:	0e                   	push   %cs
    b9eb:	08 85 02 43          	or     %al,0x4302(%di)
    b9ef:	0d 05 52             	or     $0x5205,%ax
    b9f2:	c5 0c                	lds    (%si),%cx
    b9f4:	04 04                	add    $0x4,%al
    b9f6:	00 00                	add    %al,(%bx,%si)
    b9f8:	1c 00                	sbb    $0x0,%al
    b9fa:	00 00                	add    %al,(%bx,%si)
    b9fc:	60                   	pusha  
    b9fd:	01 00                	add    %ax,(%bx,%si)
    b9ff:	00 3c                	add    %bh,(%si)
    ba01:	c8 ff ff 19          	enter  $0xffff,$0x19
    ba05:	00 00                	add    %al,(%bx,%si)
    ba07:	00 00                	add    %al,(%bx,%si)
    ba09:	42                   	inc    %dx
    ba0a:	0e                   	push   %cs
    ba0b:	08 85 02 43          	or     %al,0x4302(%di)
    ba0f:	0d 05 52             	or     $0x5205,%ax
    ba12:	c5 0c                	lds    (%si),%cx
    ba14:	04 04                	add    $0x4,%al
    ba16:	00 00                	add    %al,(%bx,%si)
    ba18:	1c 00                	sbb    $0x0,%al
    ba1a:	00 00                	add    %al,(%bx,%si)
    ba1c:	80 01 00             	addb   $0x0,(%bx,%di)
    ba1f:	00 35                	add    %dh,(%di)
    ba21:	c8 ff ff 19          	enter  $0xffff,$0x19
    ba25:	00 00                	add    %al,(%bx,%si)
    ba27:	00 00                	add    %al,(%bx,%si)
    ba29:	42                   	inc    %dx
    ba2a:	0e                   	push   %cs
    ba2b:	08 85 02 43          	or     %al,0x4302(%di)
    ba2f:	0d 05 52             	or     $0x5205,%ax
    ba32:	c5 0c                	lds    (%si),%cx
    ba34:	04 04                	add    $0x4,%al
    ba36:	00 00                	add    %al,(%bx,%si)
    ba38:	1c 00                	sbb    $0x0,%al
    ba3a:	00 00                	add    %al,(%bx,%si)
    ba3c:	a0 01 00             	mov    0x1,%al
    ba3f:	00 2e c8 ff          	add    %ch,-0x38
    ba43:	ff 8d 00 00          	decw   0x0(%di)
    ba47:	00 00                	add    %al,(%bx,%si)
    ba49:	42                   	inc    %dx
    ba4a:	0e                   	push   %cs
    ba4b:	08 85 02 43          	or     %al,0x4302(%di)
    ba4f:	0d 05 02             	or     $0x205,%ax
    ba52:	86 c5                	xchg   %al,%ch
    ba54:	0c 04                	or     $0x4,%al
    ba56:	04 00                	add    $0x0,%al
    ba58:	1c 00                	sbb    $0x0,%al
    ba5a:	00 00                	add    %al,(%bx,%si)
    ba5c:	c0 01 00             	rolb   $0x0,(%bx,%di)
    ba5f:	00 fa                	add    %bh,%dl
    ba61:	c8 ff ff 55          	enter  $0xffff,$0x55
    ba65:	01 00                	add    %ax,(%bx,%si)
    ba67:	00 00                	add    %al,(%bx,%si)
    ba69:	42                   	inc    %dx
    ba6a:	0e                   	push   %cs
    ba6b:	08 85 02 43          	or     %al,0x4302(%di)
    ba6f:	0d 05 03             	or     $0x305,%ax
    ba72:	4e                   	dec    %si
    ba73:	01 c5                	add    %ax,%bp
    ba75:	0c 04                	or     $0x4,%al
    ba77:	04 1c                	add    $0x1c,%al
    ba79:	00 00                	add    %al,(%bx,%si)
    ba7b:	00 e0                	add    %ah,%al
    ba7d:	01 00                	add    %ax,(%bx,%si)
    ba7f:	00 2f                	add    %ch,(%bx)
    ba81:	ca ff ff             	lret   $0xffff
    ba84:	5f                   	pop    %di
    ba85:	00 00                	add    %al,(%bx,%si)
    ba87:	00 00                	add    %al,(%bx,%si)
    ba89:	42                   	inc    %dx
    ba8a:	0e                   	push   %cs
    ba8b:	08 85 02 43          	or     %al,0x4302(%di)
    ba8f:	0d 05 02             	or     $0x205,%ax
    ba92:	58                   	pop    %ax
    ba93:	c5 0c                	lds    (%si),%cx
    ba95:	04 04                	add    $0x4,%al
    ba97:	00 20                	add    %ah,(%bx,%si)
    ba99:	00 00                	add    %al,(%bx,%si)
    ba9b:	00 00                	add    %al,(%bx,%si)
    ba9d:	02 00                	add    (%bx,%si),%al
    ba9f:	00 6e ca             	add    %ch,-0x36(%bp)
    baa2:	ff                   	(bad)  
    baa3:	ff 2a                	ljmp   *(%bp,%si)
    baa5:	01 00                	add    %ax,(%bx,%si)
    baa7:	00 00                	add    %al,(%bx,%si)
    baa9:	42                   	inc    %dx
    baaa:	0e                   	push   %cs
    baab:	08 85 02 43          	or     %al,0x4302(%di)
    baaf:	0d 05 46             	or     $0x4605,%ax
    bab2:	83 03 03             	addw   $0x3,(%bp,%di)
    bab5:	1d 01 c5             	sbb    $0xc501,%ax
    bab8:	c3                   	ret    
    bab9:	0c 04                	or     $0x4,%al
    babb:	04 1c                	add    $0x1c,%al
    babd:	00 00                	add    %al,(%bx,%si)
    babf:	00 24                	add    %ah,(%si)
    bac1:	02 00                	add    (%bx,%si),%al
    bac3:	00 74 cb             	add    %dh,-0x35(%si)
    bac6:	ff                   	(bad)  
    bac7:	ff 64 00             	jmp    *0x0(%si)
    baca:	00 00                	add    %al,(%bx,%si)
    bacc:	00 42 0e             	add    %al,0xe(%bp,%si)
    bacf:	08 85 02 43          	or     %al,0x4302(%di)
    bad3:	0d 05 02             	or     $0x205,%ax
    bad6:	5d                   	pop    %bp
    bad7:	c5 0c                	lds    (%si),%cx
    bad9:	04 04                	add    $0x4,%al
    badb:	00 1c                	add    %bl,(%si)
    badd:	00 00                	add    %al,(%bx,%si)
    badf:	00 44 02             	add    %al,0x2(%si)
    bae2:	00 00                	add    %al,(%bx,%si)
    bae4:	b8 cb ff             	mov    $0xffcb,%ax
    bae7:	ff 2f                	ljmp   *(%bx)
    bae9:	00 00                	add    %al,(%bx,%si)
    baeb:	00 00                	add    %al,(%bx,%si)
    baed:	42                   	inc    %dx
    baee:	0e                   	push   %cs
    baef:	08 85 02 43          	or     %al,0x4302(%di)
    baf3:	0d 05 68             	or     $0x6805,%ax
    baf6:	c5 0c                	lds    (%si),%cx
    baf8:	04 04                	add    $0x4,%al
    bafa:	00 00                	add    %al,(%bx,%si)
    bafc:	1c 00                	sbb    $0x0,%al
    bafe:	00 00                	add    %al,(%bx,%si)
    bb00:	64 02 00             	add    %fs:(%bx,%si),%al
    bb03:	00 c7                	add    %al,%bh
    bb05:	cb                   	lret   
    bb06:	ff                   	(bad)  
    bb07:	ff 25                	jmp    *(%di)
    bb09:	00 00                	add    %al,(%bx,%si)
    bb0b:	00 00                	add    %al,(%bx,%si)
    bb0d:	42                   	inc    %dx
    bb0e:	0e                   	push   %cs
    bb0f:	08 85 02 43          	or     %al,0x4302(%di)
    bb13:	0d 05 5e             	or     $0x5e05,%ax
    bb16:	c5 0c                	lds    (%si),%cx
    bb18:	04 04                	add    $0x4,%al
    bb1a:	00 00                	add    %al,(%bx,%si)
    bb1c:	1c 00                	sbb    $0x0,%al
    bb1e:	00 00                	add    %al,(%bx,%si)
    bb20:	84 02                	test   %al,(%bp,%si)
    bb22:	00 00                	add    %al,(%bx,%si)
    bb24:	cc                   	int3   
    bb25:	cb                   	lret   
    bb26:	ff                   	(bad)  
    bb27:	ff 25                	jmp    *(%di)
    bb29:	00 00                	add    %al,(%bx,%si)
    bb2b:	00 00                	add    %al,(%bx,%si)
    bb2d:	42                   	inc    %dx
    bb2e:	0e                   	push   %cs
    bb2f:	08 85 02 43          	or     %al,0x4302(%di)
    bb33:	0d 05 5e             	or     $0x5e05,%ax
    bb36:	c5 0c                	lds    (%si),%cx
    bb38:	04 04                	add    $0x4,%al
    bb3a:	00 00                	add    %al,(%bx,%si)
    bb3c:	1c 00                	sbb    $0x0,%al
    bb3e:	00 00                	add    %al,(%bx,%si)
    bb40:	a4                   	movsb  %ds:(%si),%es:(%di)
    bb41:	02 00                	add    (%bx,%si),%al
    bb43:	00 d1                	add    %dl,%cl
    bb45:	cb                   	lret   
    bb46:	ff                   	(bad)  
    bb47:	ff 29                	ljmp   *(%bx,%di)
    bb49:	00 00                	add    %al,(%bx,%si)
    bb4b:	00 00                	add    %al,(%bx,%si)
    bb4d:	42                   	inc    %dx
    bb4e:	0e                   	push   %cs
    bb4f:	08 85 02 43          	or     %al,0x4302(%di)
    bb53:	0d 05 62             	or     $0x6205,%ax
    bb56:	c5 0c                	lds    (%si),%cx
    bb58:	04 04                	add    $0x4,%al
    bb5a:	00 00                	add    %al,(%bx,%si)
    bb5c:	1c 00                	sbb    $0x0,%al
    bb5e:	00 00                	add    %al,(%bx,%si)
    bb60:	c4 02                	les    (%bp,%si),%ax
    bb62:	00 00                	add    %al,(%bx,%si)
    bb64:	da cb                	fcmove %st(3),%st
    bb66:	ff                   	(bad)  
    bb67:	ff 25                	jmp    *(%di)
    bb69:	00 00                	add    %al,(%bx,%si)
    bb6b:	00 00                	add    %al,(%bx,%si)
    bb6d:	42                   	inc    %dx
    bb6e:	0e                   	push   %cs
    bb6f:	08 85 02 43          	or     %al,0x4302(%di)
    bb73:	0d 05 5e             	or     $0x5e05,%ax
    bb76:	c5 0c                	lds    (%si),%cx
    bb78:	04 04                	add    $0x4,%al
    bb7a:	00 00                	add    %al,(%bx,%si)
    bb7c:	1c 00                	sbb    $0x0,%al
    bb7e:	00 00                	add    %al,(%bx,%si)
    bb80:	e4 02                	in     $0x2,%al
    bb82:	00 00                	add    %al,(%bx,%si)
    bb84:	df cb                	(bad)  
    bb86:	ff                   	(bad)  
    bb87:	ff 29                	ljmp   *(%bx,%di)
    bb89:	00 00                	add    %al,(%bx,%si)
    bb8b:	00 00                	add    %al,(%bx,%si)
    bb8d:	42                   	inc    %dx
    bb8e:	0e                   	push   %cs
    bb8f:	08 85 02 43          	or     %al,0x4302(%di)
    bb93:	0d 05 62             	or     $0x6205,%ax
    bb96:	c5 0c                	lds    (%si),%cx
    bb98:	04 04                	add    $0x4,%al
    bb9a:	00 00                	add    %al,(%bx,%si)
    bb9c:	1c 00                	sbb    $0x0,%al
    bb9e:	00 00                	add    %al,(%bx,%si)
    bba0:	04 03                	add    $0x3,%al
    bba2:	00 00                	add    %al,(%bx,%si)
    bba4:	e8 cb ff             	call   bb72 <digits.1714+0x2e6>
    bba7:	ff 16 00 00          	call   *0x0
    bbab:	00 00                	add    %al,(%bx,%si)
    bbad:	42                   	inc    %dx
    bbae:	0e                   	push   %cs
    bbaf:	08 85 02 43          	or     %al,0x4302(%di)
    bbb3:	0d 05 4f             	or     $0x4f05,%ax
    bbb6:	c5 0c                	lds    (%si),%cx
    bbb8:	04 04                	add    $0x4,%al
    bbba:	00 00                	add    %al,(%bx,%si)
    bbbc:	1c 00                	sbb    $0x0,%al
    bbbe:	00 00                	add    %al,(%bx,%si)
    bbc0:	24 03                	and    $0x3,%al
    bbc2:	00 00                	add    %al,(%bx,%si)
    bbc4:	de cb                	fmulp  %st,%st(3)
    bbc6:	ff                   	(bad)  
    bbc7:	ff 41 00             	incw   0x0(%bx,%di)
    bbca:	00 00                	add    %al,(%bx,%si)
    bbcc:	00 42 0e             	add    %al,0xe(%bp,%si)
    bbcf:	08 85 02 43          	or     %al,0x4302(%di)
    bbd3:	0d 05 7a             	or     $0x7a05,%ax
    bbd6:	c5 0c                	lds    (%si),%cx
    bbd8:	04 04                	add    $0x4,%al
    bbda:	00 00                	add    %al,(%bx,%si)
    bbdc:	20 00                	and    %al,(%bx,%si)
    bbde:	00 00                	add    %al,(%bx,%si)
    bbe0:	44                   	inc    %sp
    bbe1:	03 00                	add    (%bx,%si),%ax
    bbe3:	00 ff                	add    %bh,%bh
    bbe5:	cb                   	lret   
    bbe6:	ff                   	(bad)  
    bbe7:	ff 4b 00             	decw   0x0(%bp,%di)
    bbea:	00 00                	add    %al,(%bx,%si)
    bbec:	00 42 0e             	add    %al,0xe(%bp,%si)
    bbef:	08 85 02 43          	or     %al,0x4302(%di)
    bbf3:	0d 05 46             	or     $0x4605,%ax
    bbf6:	83 03 7c             	addw   $0x7c,(%bp,%di)
    bbf9:	c3                   	ret    
    bbfa:	42                   	inc    %dx
    bbfb:	c5 0c                	lds    (%si),%cx
    bbfd:	04 04                	add    $0x4,%al
    bbff:	00 1c                	add    %bl,(%si)
    bc01:	00 00                	add    %al,(%bx,%si)
    bc03:	00 68 03             	add    %ch,0x3(%bx,%si)
    bc06:	00 00                	add    %al,(%bx,%si)
    bc08:	26 cc                	es int3 
    bc0a:	ff                   	(bad)  
    bc0b:	ff 9d 00 00          	lcall  *0x0(%di)
    bc0f:	00 00                	add    %al,(%bx,%si)
    bc11:	42                   	inc    %dx
    bc12:	0e                   	push   %cs
    bc13:	08 85 02 43          	or     %al,0x4302(%di)
    bc17:	0d 05 02             	or     $0x205,%ax
    bc1a:	96                   	xchg   %ax,%si
    bc1b:	c5 0c                	lds    (%si),%cx
    bc1d:	04 04                	add    $0x4,%al
    bc1f:	00 1c                	add    %bl,(%si)
    bc21:	00 00                	add    %al,(%bx,%si)
    bc23:	00 88 03 00          	add    %cl,0x3(%bx,%si)
    bc27:	00 a3 cc ff          	add    %ah,-0x34(%bp,%di)
    bc2b:	ff 58 00             	lcall  *0x0(%bx,%si)
    bc2e:	00 00                	add    %al,(%bx,%si)
    bc30:	00 42 0e             	add    %al,0xe(%bp,%si)
    bc33:	08 85 02 43          	or     %al,0x4302(%di)
    bc37:	0d 05 02             	or     $0x205,%ax
    bc3a:	51                   	push   %cx
    bc3b:	c5 0c                	lds    (%si),%cx
    bc3d:	04 04                	add    $0x4,%al
    bc3f:	00 1c                	add    %bl,(%si)
    bc41:	00 00                	add    %al,(%bx,%si)
    bc43:	00 a8 03 00          	add    %ch,0x3(%bx,%si)
    bc47:	00 db                	add    %bl,%bl
    bc49:	cc                   	int3   
    bc4a:	ff                   	(bad)  
    bc4b:	ff ca                	dec    %dx
    bc4d:	00 00                	add    %al,(%bx,%si)
    bc4f:	00 00                	add    %al,(%bx,%si)
    bc51:	42                   	inc    %dx
    bc52:	0e                   	push   %cs
    bc53:	08 85 02 43          	or     %al,0x4302(%di)
    bc57:	0d 05 02             	or     $0x205,%ax
    bc5a:	c3                   	ret    
    bc5b:	c5 0c                	lds    (%si),%cx
    bc5d:	04 04                	add    $0x4,%al
    bc5f:	00 1c                	add    %bl,(%si)
    bc61:	00 00                	add    %al,(%bx,%si)
    bc63:	00 c8                	add    %cl,%al
    bc65:	03 00                	add    (%bx,%si),%ax
    bc67:	00 85 cd ff          	add    %al,-0x33(%di)
    bc6b:	ff 44 01             	incw   0x1(%si)
    bc6e:	00 00                	add    %al,(%bx,%si)
    bc70:	00 42 0e             	add    %al,0xe(%bp,%si)
    bc73:	08 85 02 43          	or     %al,0x4302(%di)
    bc77:	0d 05 03             	or     $0x305,%ax
    bc7a:	3d 01 c5             	cmp    $0xc501,%ax
    bc7d:	0c 04                	or     $0x4,%al
    bc7f:	04 1c                	add    $0x1c,%al
    bc81:	00 00                	add    %al,(%bx,%si)
    bc83:	00 e8                	add    %ch,%al
    bc85:	03 00                	add    (%bx,%si),%ax
    bc87:	00 a9 ce ff          	add    %ch,-0x32(%bx,%di)
    bc8b:	ff 9e 00 00          	lcall  *0x0(%bp)
    bc8f:	00 00                	add    %al,(%bx,%si)
    bc91:	42                   	inc    %dx
    bc92:	0e                   	push   %cs
    bc93:	08 85 02 43          	or     %al,0x4302(%di)
    bc97:	0d 05 02             	or     $0x205,%ax
    bc9a:	97                   	xchg   %ax,%di
    bc9b:	c5 0c                	lds    (%si),%cx
    bc9d:	04 04                	add    $0x4,%al
    bc9f:	00 20                	add    %ah,(%bx,%si)
    bca1:	00 00                	add    %al,(%bx,%si)
    bca3:	00 08                	add    %cl,(%bx,%si)
    bca5:	04 00                	add    $0x0,%al
    bca7:	00 27                	add    %ah,(%bx)
    bca9:	cf                   	iret   
    bcaa:	ff                   	(bad)  
    bcab:	ff a4 02 00          	jmp    *0x2(%si)
    bcaf:	00 00                	add    %al,(%bx,%si)
    bcb1:	42                   	inc    %dx
    bcb2:	0e                   	push   %cs
    bcb3:	08 85 02 43          	or     %al,0x4302(%di)
    bcb7:	0d 05 46             	or     $0x4605,%ax
    bcba:	83 03 03             	addw   $0x3,(%bp,%di)
    bcbd:	97                   	xchg   %ax,%di
    bcbe:	02 c5                	add    %ch,%al
    bcc0:	c3                   	ret    
    bcc1:	0c 04                	or     $0x4,%al
    bcc3:	04 1c                	add    $0x1c,%al
    bcc5:	00 00                	add    %al,(%bx,%si)
    bcc7:	00 2c                	add    %ch,(%si)
    bcc9:	04 00                	add    $0x0,%al
    bccb:	00 a7 d1 ff          	add    %ah,-0x2f(%bx)
    bccf:	ff 97 00 00          	call   *0x0(%bx)
    bcd3:	00 00                	add    %al,(%bx,%si)
    bcd5:	42                   	inc    %dx
    bcd6:	0e                   	push   %cs
    bcd7:	08 85 02 43          	or     %al,0x4302(%di)
    bcdb:	0d 05 02             	or     $0x205,%ax
    bcde:	90                   	nop
    bcdf:	c5 0c                	lds    (%si),%cx
    bce1:	04 04                	add    $0x4,%al
    bce3:	00 1c                	add    %bl,(%si)
    bce5:	00 00                	add    %al,(%bx,%si)
    bce7:	00 4c 04             	add    %cl,0x4(%si)
    bcea:	00 00                	add    %al,(%bx,%si)
    bcec:	1e                   	push   %ds
    bced:	d2 ff                	sar    %cl,%bh
    bcef:	ff c4                	inc    %sp
    bcf1:	00 00                	add    %al,(%bx,%si)
    bcf3:	00 00                	add    %al,(%bx,%si)
    bcf5:	42                   	inc    %dx
    bcf6:	0e                   	push   %cs
    bcf7:	08 85 02 43          	or     %al,0x4302(%di)
    bcfb:	0d 05 02             	or     $0x205,%ax
    bcfe:	bd c5 0c             	mov    $0xcc5,%bp
    bd01:	04 04                	add    $0x4,%al
    bd03:	00 1c                	add    %bl,(%si)
    bd05:	00 00                	add    %al,(%bx,%si)
    bd07:	00 6c 04             	add    %ch,0x4(%si)
    bd0a:	00 00                	add    %al,(%bx,%si)
    bd0c:	c2 d2 ff             	ret    $0xffd2
    bd0f:	ff 82 00 00          	incw   0x0(%bp,%si)
    bd13:	00 00                	add    %al,(%bx,%si)
    bd15:	42                   	inc    %dx
    bd16:	0e                   	push   %cs
    bd17:	08 85 02 43          	or     %al,0x4302(%di)
    bd1b:	0d 05 02             	or     $0x205,%ax
    bd1e:	7b c5                	jnp    bce5 <digits.1714+0x459>
    bd20:	0c 04                	or     $0x4,%al
    bd22:	04 00                	add    $0x0,%al
    bd24:	1c 00                	sbb    $0x0,%al
    bd26:	00 00                	add    %al,(%bx,%si)
    bd28:	8c 04                	mov    %es,(%si)
    bd2a:	00 00                	add    %al,(%bx,%si)
    bd2c:	24 d3                	and    $0xd3,%al
    bd2e:	ff                   	(bad)  
    bd2f:	ff 1a                	lcall  *(%bp,%si)
    bd31:	01 00                	add    %ax,(%bx,%si)
    bd33:	00 00                	add    %al,(%bx,%si)
    bd35:	42                   	inc    %dx
    bd36:	0e                   	push   %cs
    bd37:	08 85 02 43          	or     %al,0x4302(%di)
    bd3b:	0d 05 03             	or     $0x305,%ax
    bd3e:	13 01                	adc    (%bx,%di),%ax
    bd40:	c5 0c                	lds    (%si),%cx
    bd42:	04 04                	add    $0x4,%al
    bd44:	1c 00                	sbb    $0x0,%al
    bd46:	00 00                	add    %al,(%bx,%si)
    bd48:	ac                   	lods   %ds:(%si),%al
    bd49:	04 00                	add    $0x0,%al
    bd4b:	00 1e d4 ff          	add    %bl,-0x2c
    bd4f:	ff                   	(bad)  
    bd50:	d9 01                	flds   (%bx,%di)
    bd52:	00 00                	add    %al,(%bx,%si)
    bd54:	00 42 0e             	add    %al,0xe(%bp,%si)
    bd57:	08 85 02 43          	or     %al,0x4302(%di)
    bd5b:	0d 05 03             	or     $0x305,%ax
    bd5e:	d2 01                	rolb   %cl,(%bx,%di)
    bd60:	c5 0c                	lds    (%si),%cx
    bd62:	04 04                	add    $0x4,%al
    bd64:	1c 00                	sbb    $0x0,%al
    bd66:	00 00                	add    %al,(%bx,%si)
    bd68:	cc                   	int3   
    bd69:	04 00                	add    $0x0,%al
    bd6b:	00 d7                	add    %dl,%bh
    bd6d:	d5 ff                	aad    $0xff
    bd6f:	ff                   	(bad)  
    bd70:	78 00                	js     bd72 <digits.1714+0x4e6>
    bd72:	00 00                	add    %al,(%bx,%si)
    bd74:	00 42 0e             	add    %al,0xe(%bp,%si)
    bd77:	08 85 02 43          	or     %al,0x4302(%di)
    bd7b:	0d 05 02             	or     $0x205,%ax
    bd7e:	71 c5                	jno    bd45 <digits.1714+0x4b9>
    bd80:	0c 04                	or     $0x4,%al
    bd82:	04 00                	add    $0x0,%al
    bd84:	1c 00                	sbb    $0x0,%al
    bd86:	00 00                	add    %al,(%bx,%si)
    bd88:	ec                   	in     (%dx),%al
    bd89:	04 00                	add    $0x0,%al
    bd8b:	00 2f                	add    %ch,(%bx)
    bd8d:	d6                   	(bad)  
    bd8e:	ff                   	(bad)  
    bd8f:	ff 88 00 00          	decw   0x0(%bx,%si)
    bd93:	00 00                	add    %al,(%bx,%si)
    bd95:	42                   	inc    %dx
    bd96:	0e                   	push   %cs
    bd97:	08 85 02 43          	or     %al,0x4302(%di)
    bd9b:	0d 05 02             	or     $0x205,%ax
    bd9e:	81 c5 0c 04          	add    $0x40c,%bp
    bda2:	04 00                	add    $0x0,%al
    bda4:	1c 00                	sbb    $0x0,%al
    bda6:	00 00                	add    %al,(%bx,%si)
    bda8:	0c 05                	or     $0x5,%al
    bdaa:	00 00                	add    %al,(%bx,%si)
    bdac:	97                   	xchg   %ax,%di
    bdad:	d6                   	(bad)  
    bdae:	ff                   	(bad)  
    bdaf:	ff 64 00             	jmp    *0x0(%si)
    bdb2:	00 00                	add    %al,(%bx,%si)
    bdb4:	00 42 0e             	add    %al,0xe(%bp,%si)
    bdb7:	08 85 02 43          	or     %al,0x4302(%di)
    bdbb:	0d 05 02             	or     $0x205,%ax
    bdbe:	5d                   	pop    %bp
    bdbf:	c5 0c                	lds    (%si),%cx
    bdc1:	04 04                	add    $0x4,%al
    bdc3:	00 1c                	add    %bl,(%si)
    bdc5:	00 00                	add    %al,(%bx,%si)
    bdc7:	00 2c                	add    %ch,(%si)
    bdc9:	05 00 00             	add    $0x0,%ax
    bdcc:	db d6                	fcmovnbe %st(6),%st
    bdce:	ff                   	(bad)  
    bdcf:	ff 2f                	ljmp   *(%bx)
    bdd1:	00 00                	add    %al,(%bx,%si)
    bdd3:	00 00                	add    %al,(%bx,%si)
    bdd5:	42                   	inc    %dx
    bdd6:	0e                   	push   %cs
    bdd7:	08 85 02 43          	or     %al,0x4302(%di)
    bddb:	0d 05 68             	or     $0x6805,%ax
    bdde:	c5 0c                	lds    (%si),%cx
    bde0:	04 04                	add    $0x4,%al
    bde2:	00 00                	add    %al,(%bx,%si)
    bde4:	1c 00                	sbb    $0x0,%al
    bde6:	00 00                	add    %al,(%bx,%si)
    bde8:	4c                   	dec    %sp
    bde9:	05 00 00             	add    $0x0,%ax
    bdec:	ea d6 ff ff 25       	ljmp   $0x25ff,$0xffd6
    bdf1:	00 00                	add    %al,(%bx,%si)
    bdf3:	00 00                	add    %al,(%bx,%si)
    bdf5:	42                   	inc    %dx
    bdf6:	0e                   	push   %cs
    bdf7:	08 85 02 43          	or     %al,0x4302(%di)
    bdfb:	0d 05 5e             	or     $0x5e05,%ax
    bdfe:	c5 0c                	lds    (%si),%cx
    be00:	04 04                	add    $0x4,%al
    be02:	00 00                	add    %al,(%bx,%si)
    be04:	1c 00                	sbb    $0x0,%al
    be06:	00 00                	add    %al,(%bx,%si)
    be08:	6c                   	insb   (%dx),%es:(%di)
    be09:	05 00 00             	add    $0x0,%ax
    be0c:	ef                   	out    %ax,(%dx)
    be0d:	d6                   	(bad)  
    be0e:	ff                   	(bad)  
    be0f:	ff 16 00 00          	call   *0x0
    be13:	00 00                	add    %al,(%bx,%si)
    be15:	42                   	inc    %dx
    be16:	0e                   	push   %cs
    be17:	08 85 02 43          	or     %al,0x4302(%di)
    be1b:	0d 05 4f             	or     $0x4f05,%ax
    be1e:	c5 0c                	lds    (%si),%cx
    be20:	04 04                	add    $0x4,%al
    be22:	00 00                	add    %al,(%bx,%si)
    be24:	1c 00                	sbb    $0x0,%al
    be26:	00 00                	add    %al,(%bx,%si)
    be28:	8c 05                	mov    %es,(%di)
    be2a:	00 00                	add    %al,(%bx,%si)
    be2c:	e5 d6                	in     $0xd6,%ax
    be2e:	ff                   	(bad)  
    be2f:	ff 9f 00 00          	lcall  *0x0(%bx)
    be33:	00 00                	add    %al,(%bx,%si)
    be35:	42                   	inc    %dx
    be36:	0e                   	push   %cs
    be37:	08 85 02 43          	or     %al,0x4302(%di)
    be3b:	0d 05 02             	or     $0x205,%ax
    be3e:	98                   	cbtw   
    be3f:	c5 0c                	lds    (%si),%cx
    be41:	04 04                	add    $0x4,%al
    be43:	00 1c                	add    %bl,(%si)
    be45:	00 00                	add    %al,(%bx,%si)
    be47:	00 ac 05 00          	add    %ch,0x5(%si)
    be4b:	00 64 d7             	add    %ah,-0x29(%si)
    be4e:	ff                   	(bad)  
    be4f:	ff 5a 00             	lcall  *0x0(%bp,%si)
    be52:	00 00                	add    %al,(%bx,%si)
    be54:	00 42 0e             	add    %al,0xe(%bp,%si)
    be57:	08 85 02 43          	or     %al,0x4302(%di)
    be5b:	0d 05 02             	or     $0x205,%ax
    be5e:	53                   	push   %bx
    be5f:	c5 0c                	lds    (%si),%cx
    be61:	04 04                	add    $0x4,%al
    be63:	00 1c                	add    %bl,(%si)
    be65:	00 00                	add    %al,(%bx,%si)
    be67:	00 cc                	add    %cl,%ah
    be69:	05 00 00             	add    $0x0,%ax
    be6c:	9e                   	sahf   
    be6d:	d7                   	xlat   %ds:(%bx)
    be6e:	ff                   	(bad)  
    be6f:	ff 95 00 00          	call   *0x0(%di)
    be73:	00 00                	add    %al,(%bx,%si)
    be75:	42                   	inc    %dx
    be76:	0e                   	push   %cs
    be77:	08 85 02 43          	or     %al,0x4302(%di)
    be7b:	0d 05 02             	or     $0x205,%ax
    be7e:	8e c5                	mov    %bp,%es
    be80:	0c 04                	or     $0x4,%al
    be82:	04 00                	add    $0x0,%al
    be84:	1c 00                	sbb    $0x0,%al
    be86:	00 00                	add    %al,(%bx,%si)
    be88:	ec                   	in     (%dx),%al
    be89:	05 00 00             	add    $0x0,%ax
    be8c:	13 d8                	adc    %ax,%bx
    be8e:	ff                   	(bad)  
    be8f:	ff 01                	incw   (%bx,%di)
    be91:	02 00                	add    (%bx,%si),%al
    be93:	00 00                	add    %al,(%bx,%si)
    be95:	42                   	inc    %dx
    be96:	0e                   	push   %cs
    be97:	08 85 02 43          	or     %al,0x4302(%di)
    be9b:	0d 05 03             	or     $0x305,%ax
    be9e:	fa                   	cli    
    be9f:	01 c5                	add    %ax,%bp
    bea1:	0c 04                	or     $0x4,%al
    bea3:	04 1c                	add    $0x1c,%al
    bea5:	00 00                	add    %al,(%bx,%si)
    bea7:	00 0c                	add    %cl,(%si)
    bea9:	06                   	push   %es
    beaa:	00 00                	add    %al,(%bx,%si)
    beac:	f4                   	hlt    
    bead:	d9 ff                	fcos   
    beaf:	ff 4f 01             	decw   0x1(%bx)
    beb2:	00 00                	add    %al,(%bx,%si)
    beb4:	00 42 0e             	add    %al,0xe(%bp,%si)
    beb7:	08 85 02 43          	or     %al,0x4302(%di)
    bebb:	0d 05 03             	or     $0x305,%ax
    bebe:	48                   	dec    %ax
    bebf:	01 c5                	add    %ax,%bp
    bec1:	0c 04                	or     $0x4,%al
    bec3:	04 1c                	add    $0x1c,%al
    bec5:	00 00                	add    %al,(%bx,%si)
    bec7:	00 2c                	add    %ch,(%si)
    bec9:	06                   	push   %es
    beca:	00 00                	add    %al,(%bx,%si)
    becc:	23 db                	and    %bx,%bx
    bece:	ff                   	(bad)  
    becf:	ff 29                	ljmp   *(%bx,%di)
    bed1:	00 00                	add    %al,(%bx,%si)
    bed3:	00 00                	add    %al,(%bx,%si)
    bed5:	42                   	inc    %dx
    bed6:	0e                   	push   %cs
    bed7:	08 85 02 43          	or     %al,0x4302(%di)
    bedb:	0d 05 62             	or     $0x6205,%ax
    bede:	c5 0c                	lds    (%si),%cx
    bee0:	04 04                	add    $0x4,%al
    bee2:	00 00                	add    %al,(%bx,%si)
    bee4:	1c 00                	sbb    $0x0,%al
    bee6:	00 00                	add    %al,(%bx,%si)
    bee8:	4c                   	dec    %sp
    bee9:	06                   	push   %es
    beea:	00 00                	add    %al,(%bx,%si)
    beec:	2c db                	sub    $0xdb,%al
    beee:	ff                   	(bad)  
    beef:	ff 25                	jmp    *(%di)
    bef1:	00 00                	add    %al,(%bx,%si)
    bef3:	00 00                	add    %al,(%bx,%si)
    bef5:	42                   	inc    %dx
    bef6:	0e                   	push   %cs
    bef7:	08 85 02 43          	or     %al,0x4302(%di)
    befb:	0d 05 5e             	or     $0x5e05,%ax
    befe:	c5 0c                	lds    (%si),%cx
    bf00:	04 04                	add    $0x4,%al
    bf02:	00 00                	add    %al,(%bx,%si)
    bf04:	1c 00                	sbb    $0x0,%al
    bf06:	00 00                	add    %al,(%bx,%si)
    bf08:	6c                   	insb   (%dx),%es:(%di)
    bf09:	06                   	push   %es
    bf0a:	00 00                	add    %al,(%bx,%si)
    bf0c:	31 db                	xor    %bx,%bx
    bf0e:	ff                   	(bad)  
    bf0f:	ff 29                	ljmp   *(%bx,%di)
    bf11:	00 00                	add    %al,(%bx,%si)
    bf13:	00 00                	add    %al,(%bx,%si)
    bf15:	42                   	inc    %dx
    bf16:	0e                   	push   %cs
    bf17:	08 85 02 43          	or     %al,0x4302(%di)
    bf1b:	0d 05 62             	or     $0x6205,%ax
    bf1e:	c5 0c                	lds    (%si),%cx
    bf20:	04 04                	add    $0x4,%al
    bf22:	00 00                	add    %al,(%bx,%si)
    bf24:	20 00                	and    %al,(%bx,%si)
    bf26:	00 00                	add    %al,(%bx,%si)
    bf28:	8c 06 00 00          	mov    %es,0x0
    bf2c:	3a db                	cmp    %bl,%bl
    bf2e:	ff                   	(bad)  
    bf2f:	ff 4b 00             	decw   0x0(%bp,%di)
    bf32:	00 00                	add    %al,(%bx,%si)
    bf34:	00 42 0e             	add    %al,0xe(%bp,%si)
    bf37:	08 85 02 43          	or     %al,0x4302(%di)
    bf3b:	0d 05 46             	or     $0x4605,%ax
    bf3e:	83 03 7c             	addw   $0x7c,(%bp,%di)
    bf41:	c3                   	ret    
    bf42:	42                   	inc    %dx
    bf43:	c5 0c                	lds    (%si),%cx
    bf45:	04 04                	add    $0x4,%al
    bf47:	00 1c                	add    %bl,(%si)
    bf49:	00 00                	add    %al,(%bx,%si)
    bf4b:	00 b0 06 00          	add    %dh,0x6(%bx,%si)
    bf4f:	00 61 db             	add    %ah,-0x25(%bx,%di)
    bf52:	ff                   	(bad)  
    bf53:	ff 8a 00 00          	decw   0x0(%bp,%si)
    bf57:	00 00                	add    %al,(%bx,%si)
    bf59:	42                   	inc    %dx
    bf5a:	0e                   	push   %cs
    bf5b:	08 85 02 43          	or     %al,0x4302(%di)
    bf5f:	0d 05 02             	or     $0x205,%ax
    bf62:	83 c5 0c             	add    $0xc,%bp
    bf65:	04 04                	add    $0x4,%al
    bf67:	00 1c                	add    %bl,(%si)
    bf69:	00 00                	add    %al,(%bx,%si)
    bf6b:	00 d0                	add    %dl,%al
    bf6d:	06                   	push   %es
    bf6e:	00 00                	add    %al,(%bx,%si)
    bf70:	cb                   	lret   
    bf71:	db ff                	(bad)  
    bf73:	ff a9 00 00          	ljmp   *0x0(%bx,%di)
    bf77:	00 00                	add    %al,(%bx,%si)
    bf79:	42                   	inc    %dx
    bf7a:	0e                   	push   %cs
    bf7b:	08 85 02 43          	or     %al,0x4302(%di)
    bf7f:	0d 05 02             	or     $0x205,%ax
    bf82:	a2 c5 0c             	mov    %al,0xcc5
    bf85:	04 04                	add    $0x4,%al
    bf87:	00 1c                	add    %bl,(%si)
    bf89:	00 00                	add    %al,(%bx,%si)
    bf8b:	00 f0                	add    %dh,%al
    bf8d:	06                   	push   %es
    bf8e:	00 00                	add    %al,(%bx,%si)
    bf90:	54                   	push   %sp
    bf91:	dc ff                	fdivr  %st,%st(7)
    bf93:	ff 84 00 00          	incw   0x0(%si)
    bf97:	00 00                	add    %al,(%bx,%si)
    bf99:	42                   	inc    %dx
    bf9a:	0e                   	push   %cs
    bf9b:	08 85 02 43          	or     %al,0x4302(%di)
    bf9f:	0d 05 02             	or     $0x205,%ax
    bfa2:	7d c5                	jge    bf69 <digits.1714+0x6dd>
    bfa4:	0c 04                	or     $0x4,%al
    bfa6:	04 00                	add    $0x0,%al
    bfa8:	1c 00                	sbb    $0x0,%al
    bfaa:	00 00                	add    %al,(%bx,%si)
    bfac:	10 07                	adc    %al,(%bx)
    bfae:	00 00                	add    %al,(%bx,%si)
    bfb0:	b8 dc ff             	mov    $0xffdc,%ax
    bfb3:	ff 64 00             	jmp    *0x0(%si)
    bfb6:	00 00                	add    %al,(%bx,%si)
    bfb8:	00 42 0e             	add    %al,0xe(%bp,%si)
    bfbb:	08 85 02 43          	or     %al,0x4302(%di)
    bfbf:	0d 05 02             	or     $0x205,%ax
    bfc2:	5d                   	pop    %bp
    bfc3:	c5 0c                	lds    (%si),%cx
    bfc5:	04 04                	add    $0x4,%al
    bfc7:	00 1c                	add    %bl,(%si)
    bfc9:	00 00                	add    %al,(%bx,%si)
    bfcb:	00 30                	add    %dh,(%bx,%si)
    bfcd:	07                   	pop    %es
    bfce:	00 00                	add    %al,(%bx,%si)
    bfd0:	fc                   	cld    
    bfd1:	dc ff                	fdivr  %st,%st(7)
    bfd3:	ff 30                	pushw  (%bx,%si)
    bfd5:	00 00                	add    %al,(%bx,%si)
    bfd7:	00 00                	add    %al,(%bx,%si)
    bfd9:	42                   	inc    %dx
    bfda:	0e                   	push   %cs
    bfdb:	08 85 02 43          	or     %al,0x4302(%di)
    bfdf:	0d 05 69             	or     $0x6905,%ax
    bfe2:	c5 0c                	lds    (%si),%cx
    bfe4:	04 04                	add    $0x4,%al
    bfe6:	00 00                	add    %al,(%bx,%si)
    bfe8:	1c 00                	sbb    $0x0,%al
    bfea:	00 00                	add    %al,(%bx,%si)
    bfec:	50                   	push   %ax
    bfed:	07                   	pop    %es
    bfee:	00 00                	add    %al,(%bx,%si)
    bff0:	0c dd                	or     $0xdd,%al
    bff2:	ff                   	(bad)  
    bff3:	ff 01                	incw   (%bx,%di)
    bff5:	01 00                	add    %ax,(%bx,%si)
    bff7:	00 00                	add    %al,(%bx,%si)
    bff9:	42                   	inc    %dx
    bffa:	0e                   	push   %cs
    bffb:	08 85 02 43          	or     %al,0x4302(%di)
    bfff:	0d 05 02             	or     $0x205,%ax
    c002:	fa                   	cli    
    c003:	c5 0c                	lds    (%si),%cx
    c005:	04 04                	add    $0x4,%al
    c007:	00 1c                	add    %bl,(%si)
    c009:	00 00                	add    %al,(%bx,%si)
    c00b:	00 70 07             	add    %dh,0x7(%bx,%si)
    c00e:	00 00                	add    %al,(%bx,%si)
    c010:	ed                   	in     (%dx),%ax
    c011:	dd ff                	(bad)  
    c013:	ff 86 00 00          	incw   0x0(%bp)
    c017:	00 00                	add    %al,(%bx,%si)
    c019:	42                   	inc    %dx
    c01a:	0e                   	push   %cs
    c01b:	08 85 02 43          	or     %al,0x4302(%di)
    c01f:	0d 05 02             	or     $0x205,%ax
    c022:	7f c5                	jg     bfe9 <digits.1714+0x75d>
    c024:	0c 04                	or     $0x4,%al
    c026:	04 00                	add    $0x0,%al
    c028:	1c 00                	sbb    $0x0,%al
    c02a:	00 00                	add    %al,(%bx,%si)
    c02c:	90                   	nop
    c02d:	07                   	pop    %es
    c02e:	00 00                	add    %al,(%bx,%si)
    c030:	53                   	push   %bx
    c031:	de ff                	fdivrp %st,%st(7)
    c033:	ff 1c                	lcall  *(%si)
    c035:	00 00                	add    %al,(%bx,%si)
    c037:	00 00                	add    %al,(%bx,%si)
    c039:	42                   	inc    %dx
    c03a:	0e                   	push   %cs
    c03b:	08 85 02 43          	or     %al,0x4302(%di)
    c03f:	0d 05 55             	or     $0x5505,%ax
    c042:	c5 0c                	lds    (%si),%cx
    c044:	04 04                	add    $0x4,%al
    c046:	00 00                	add    %al,(%bx,%si)
    c048:	1c 00                	sbb    $0x0,%al
    c04a:	00 00                	add    %al,(%bx,%si)
    c04c:	b0 07                	mov    $0x7,%al
    c04e:	00 00                	add    %al,(%bx,%si)
    c050:	4f                   	dec    %di
    c051:	de ff                	fdivrp %st,%st(7)
    c053:	ff 26 00 00          	jmp    *0x0
    c057:	00 00                	add    %al,(%bx,%si)
    c059:	42                   	inc    %dx
    c05a:	0e                   	push   %cs
    c05b:	08 85 02 43          	or     %al,0x4302(%di)
    c05f:	0d 05 5f             	or     $0x5f05,%ax
    c062:	c5 0c                	lds    (%si),%cx
    c064:	04 04                	add    $0x4,%al
    c066:	00 00                	add    %al,(%bx,%si)
    c068:	1c 00                	sbb    $0x0,%al
    c06a:	00 00                	add    %al,(%bx,%si)
    c06c:	d0 07                	rolb   (%bx)
    c06e:	00 00                	add    %al,(%bx,%si)
    c070:	55                   	push   %bp
    c071:	de ff                	fdivrp %st,%st(7)
    c073:	ff 26 00 00          	jmp    *0x0
    c077:	00 00                	add    %al,(%bx,%si)
    c079:	42                   	inc    %dx
    c07a:	0e                   	push   %cs
    c07b:	08 85 02 43          	or     %al,0x4302(%di)
    c07f:	0d 05 5f             	or     $0x5f05,%ax
    c082:	c5 0c                	lds    (%si),%cx
    c084:	04 04                	add    $0x4,%al
    c086:	00 00                	add    %al,(%bx,%si)
    c088:	1c 00                	sbb    $0x0,%al
    c08a:	00 00                	add    %al,(%bx,%si)
    c08c:	f0 07                	lock pop %es
    c08e:	00 00                	add    %al,(%bx,%si)
    c090:	5b                   	pop    %bx
    c091:	de ff                	fdivrp %st,%st(7)
    c093:	ff 99 00 00          	lcall  *0x0(%bx,%di)
    c097:	00 00                	add    %al,(%bx,%si)
    c099:	42                   	inc    %dx
    c09a:	0e                   	push   %cs
    c09b:	08 85 02 43          	or     %al,0x4302(%di)
    c09f:	0d 05 02             	or     $0x205,%ax
    c0a2:	92                   	xchg   %ax,%dx
    c0a3:	c5 0c                	lds    (%si),%cx
    c0a5:	04 04                	add    $0x4,%al
    c0a7:	00 1c                	add    %bl,(%si)
    c0a9:	00 00                	add    %al,(%bx,%si)
    c0ab:	00 10                	add    %dl,(%bx,%si)
    c0ad:	08 00                	or     %al,(%bx,%si)
    c0af:	00 d4                	add    %dl,%ah
    c0b1:	de ff                	fdivrp %st,%st(7)
    c0b3:	ff d1                	call   *%cx
    c0b5:	00 00                	add    %al,(%bx,%si)
    c0b7:	00 00                	add    %al,(%bx,%si)
    c0b9:	42                   	inc    %dx
    c0ba:	0e                   	push   %cs
    c0bb:	08 85 02 43          	or     %al,0x4302(%di)
    c0bf:	0d 05 02             	or     $0x205,%ax
    c0c2:	ca c5 0c             	lret   $0xcc5
    c0c5:	04 04                	add    $0x4,%al
    c0c7:	00 1c                	add    %bl,(%si)
    c0c9:	00 00                	add    %al,(%bx,%si)
    c0cb:	00 30                	add    %dh,(%bx,%si)
    c0cd:	08 00                	or     %al,(%bx,%si)
    c0cf:	00 85 df ff          	add    %al,-0x21(%di)
    c0d3:	ff 64 00             	jmp    *0x0(%si)
    c0d6:	00 00                	add    %al,(%bx,%si)
    c0d8:	00 42 0e             	add    %al,0xe(%bp,%si)
    c0db:	08 85 02 43          	or     %al,0x4302(%di)
    c0df:	0d 05 02             	or     $0x205,%ax
    c0e2:	5d                   	pop    %bp
    c0e3:	c5 0c                	lds    (%si),%cx
    c0e5:	04 04                	add    $0x4,%al
    c0e7:	00 1c                	add    %bl,(%si)
    c0e9:	00 00                	add    %al,(%bx,%si)
    c0eb:	00 50 08             	add    %dl,0x8(%bx,%si)
    c0ee:	00 00                	add    %al,(%bx,%si)
    c0f0:	c9                   	leave  
    c0f1:	df ff                	(bad)  
    c0f3:	ff 2f                	ljmp   *(%bx)
    c0f5:	00 00                	add    %al,(%bx,%si)
    c0f7:	00 00                	add    %al,(%bx,%si)
    c0f9:	42                   	inc    %dx
    c0fa:	0e                   	push   %cs
    c0fb:	08 85 02 43          	or     %al,0x4302(%di)
    c0ff:	0d 05 68             	or     $0x6805,%ax
    c102:	c5 0c                	lds    (%si),%cx
    c104:	04 04                	add    $0x4,%al
    c106:	00 00                	add    %al,(%bx,%si)
    c108:	1c 00                	sbb    $0x0,%al
    c10a:	00 00                	add    %al,(%bx,%si)
    c10c:	70 08                	jo     c116 <digits.1714+0x88a>
    c10e:	00 00                	add    %al,(%bx,%si)
    c110:	d8 df                	fcomp  %st(7)
    c112:	ff                   	(bad)  
    c113:	ff 25                	jmp    *(%di)
    c115:	00 00                	add    %al,(%bx,%si)
    c117:	00 00                	add    %al,(%bx,%si)
    c119:	42                   	inc    %dx
    c11a:	0e                   	push   %cs
    c11b:	08 85 02 43          	or     %al,0x4302(%di)
    c11f:	0d 05 5e             	or     $0x5e05,%ax
    c122:	c5 0c                	lds    (%si),%cx
    c124:	04 04                	add    $0x4,%al
    c126:	00 00                	add    %al,(%bx,%si)
    c128:	1c 00                	sbb    $0x0,%al
    c12a:	00 00                	add    %al,(%bx,%si)
    c12c:	90                   	nop
    c12d:	08 00                	or     %al,(%bx,%si)
    c12f:	00 dd                	add    %bl,%ch
    c131:	df ff                	(bad)  
    c133:	ff 25                	jmp    *(%di)
    c135:	00 00                	add    %al,(%bx,%si)
    c137:	00 00                	add    %al,(%bx,%si)
    c139:	42                   	inc    %dx
    c13a:	0e                   	push   %cs
    c13b:	08 85 02 43          	or     %al,0x4302(%di)
    c13f:	0d 05 5e             	or     $0x5e05,%ax
    c142:	c5 0c                	lds    (%si),%cx
    c144:	04 04                	add    $0x4,%al
    c146:	00 00                	add    %al,(%bx,%si)
    c148:	1c 00                	sbb    $0x0,%al
    c14a:	00 00                	add    %al,(%bx,%si)
    c14c:	b0 08                	mov    $0x8,%al
    c14e:	00 00                	add    %al,(%bx,%si)
    c150:	e2 df                	loop   c131 <digits.1714+0x8a5>
    c152:	ff                   	(bad)  
    c153:	ff 29                	ljmp   *(%bx,%di)
    c155:	00 00                	add    %al,(%bx,%si)
    c157:	00 00                	add    %al,(%bx,%si)
    c159:	42                   	inc    %dx
    c15a:	0e                   	push   %cs
    c15b:	08 85 02 43          	or     %al,0x4302(%di)
    c15f:	0d 05 62             	or     $0x6205,%ax
    c162:	c5 0c                	lds    (%si),%cx
    c164:	04 04                	add    $0x4,%al
    c166:	00 00                	add    %al,(%bx,%si)
    c168:	1c 00                	sbb    $0x0,%al
    c16a:	00 00                	add    %al,(%bx,%si)
    c16c:	d0 08                	rorb   (%bx,%si)
    c16e:	00 00                	add    %al,(%bx,%si)
    c170:	eb df                	jmp    c151 <digits.1714+0x8c5>
    c172:	ff                   	(bad)  
    c173:	ff 25                	jmp    *(%di)
    c175:	00 00                	add    %al,(%bx,%si)
    c177:	00 00                	add    %al,(%bx,%si)
    c179:	42                   	inc    %dx
    c17a:	0e                   	push   %cs
    c17b:	08 85 02 43          	or     %al,0x4302(%di)
    c17f:	0d 05 5e             	or     $0x5e05,%ax
    c182:	c5 0c                	lds    (%si),%cx
    c184:	04 04                	add    $0x4,%al
    c186:	00 00                	add    %al,(%bx,%si)
    c188:	1c 00                	sbb    $0x0,%al
    c18a:	00 00                	add    %al,(%bx,%si)
    c18c:	f0 08 00             	lock or %al,(%bx,%si)
    c18f:	00 f0                	add    %dh,%al
    c191:	df ff                	(bad)  
    c193:	ff 16 00 00          	call   *0x0
    c197:	00 00                	add    %al,(%bx,%si)
    c199:	42                   	inc    %dx
    c19a:	0e                   	push   %cs
    c19b:	08 85 02 43          	or     %al,0x4302(%di)
    c19f:	0d 05 4f             	or     $0x4f05,%ax
    c1a2:	c5 0c                	lds    (%si),%cx
    c1a4:	04 04                	add    $0x4,%al
    c1a6:	00 00                	add    %al,(%bx,%si)
    c1a8:	1c 00                	sbb    $0x0,%al
    c1aa:	00 00                	add    %al,(%bx,%si)
    c1ac:	10 09                	adc    %cl,(%bx,%di)
    c1ae:	00 00                	add    %al,(%bx,%si)
    c1b0:	e6 df                	out    %al,$0xdf
    c1b2:	ff                   	(bad)  
    c1b3:	ff 41 00             	incw   0x0(%bx,%di)
    c1b6:	00 00                	add    %al,(%bx,%si)
    c1b8:	00 42 0e             	add    %al,0xe(%bp,%si)
    c1bb:	08 85 02 43          	or     %al,0x4302(%di)
    c1bf:	0d 05 7a             	or     $0x7a05,%ax
    c1c2:	c5 0c                	lds    (%si),%cx
    c1c4:	04 04                	add    $0x4,%al
    c1c6:	00 00                	add    %al,(%bx,%si)
    c1c8:	1c 00                	sbb    $0x0,%al
    c1ca:	00 00                	add    %al,(%bx,%si)
    c1cc:	30 09                	xor    %cl,(%bx,%di)
    c1ce:	00 00                	add    %al,(%bx,%si)
    c1d0:	07                   	pop    %es
    c1d1:	e0 ff                	loopne c1d2 <digits.1714+0x946>
    c1d3:	ff 26 00 00          	jmp    *0x0
    c1d7:	00 00                	add    %al,(%bx,%si)
    c1d9:	42                   	inc    %dx
    c1da:	0e                   	push   %cs
    c1db:	08 85 02 43          	or     %al,0x4302(%di)
    c1df:	0d 05 5f             	or     $0x5f05,%ax
    c1e2:	c5 0c                	lds    (%si),%cx
    c1e4:	04 04                	add    $0x4,%al
    c1e6:	00 00                	add    %al,(%bx,%si)
    c1e8:	1c 00                	sbb    $0x0,%al
    c1ea:	00 00                	add    %al,(%bx,%si)
    c1ec:	50                   	push   %ax
    c1ed:	09 00                	or     %ax,(%bx,%si)
    c1ef:	00 0d                	add    %cl,(%di)
    c1f1:	e0 ff                	loopne c1f2 <digits.1714+0x966>
    c1f3:	ff c6                	inc    %si
    c1f5:	00 00                	add    %al,(%bx,%si)
    c1f7:	00 00                	add    %al,(%bx,%si)
    c1f9:	42                   	inc    %dx
    c1fa:	0e                   	push   %cs
    c1fb:	08 85 02 43          	or     %al,0x4302(%di)
    c1ff:	0d 05 02             	or     $0x205,%ax
    c202:	bf c5 0c             	mov    $0xcc5,%di
    c205:	04 04                	add    $0x4,%al
    c207:	00 1c                	add    %bl,(%si)
    c209:	00 00                	add    %al,(%bx,%si)
    c20b:	00 70 09             	add    %dh,0x9(%bx,%si)
    c20e:	00 00                	add    %al,(%bx,%si)
    c210:	b3 e0                	mov    $0xe0,%bl
    c212:	ff                   	(bad)  
    c213:	ff c8                	dec    %ax
    c215:	01 00                	add    %ax,(%bx,%si)
    c217:	00 00                	add    %al,(%bx,%si)
    c219:	42                   	inc    %dx
    c21a:	0e                   	push   %cs
    c21b:	08 85 02 43          	or     %al,0x4302(%di)
    c21f:	0d 05 03             	or     $0x305,%ax
    c222:	c1 01 c5             	rolw   $0xc5,(%bx,%di)
    c225:	0c 04                	or     $0x4,%al
    c227:	04 18                	add    $0x18,%al
    c229:	00 00                	add    %al,(%bx,%si)
    c22b:	00 90 09 00          	add    %dl,0x9(%bx,%si)
    c22f:	00 5b e2             	add    %bl,-0x1e(%bp,%di)
    c232:	ff                   	(bad)  
    c233:	ff 08                	decw   (%bx,%si)
    c235:	00 00                	add    %al,(%bx,%si)
    c237:	00 00                	add    %al,(%bx,%si)
    c239:	42                   	inc    %dx
    c23a:	0e                   	push   %cs
    c23b:	08 85 02 43          	or     %al,0x4302(%di)
    c23f:	0d 05 00             	or     $0x5,%ax
    c242:	00 00                	add    %al,(%bx,%si)
    c244:	1c 00                	sbb    $0x0,%al
    c246:	00 00                	add    %al,(%bx,%si)
    c248:	ac                   	lods   %ds:(%si),%al
    c249:	09 00                	or     %ax,(%bx,%si)
    c24b:	00 47 e2             	add    %al,-0x1e(%bx)
    c24e:	ff                   	(bad)  
    c24f:	ff 0c                	decw   (%si)
    c251:	00 00                	add    %al,(%bx,%si)
    c253:	00 00                	add    %al,(%bx,%si)
    c255:	42                   	inc    %dx
    c256:	0e                   	push   %cs
    c257:	08 85 02 43          	or     %al,0x4302(%di)
    c25b:	0d 05 45             	or     $0x4505,%ax
    c25e:	c5 0c                	lds    (%si),%cx
    c260:	04 04                	add    $0x4,%al
    c262:	00 00                	add    %al,(%bx,%si)
    c264:	1c 00                	sbb    $0x0,%al
    c266:	00 00                	add    %al,(%bx,%si)
    c268:	cc                   	int3   
    c269:	09 00                	or     %ax,(%bx,%si)
    c26b:	00 33                	add    %dh,(%bp,%di)
    c26d:	e2 ff                	loop   c26e <digits.1714+0x9e2>
    c26f:	ff 29                	ljmp   *(%bx,%di)
    c271:	00 00                	add    %al,(%bx,%si)
    c273:	00 00                	add    %al,(%bx,%si)
    c275:	42                   	inc    %dx
    c276:	0e                   	push   %cs
    c277:	08 85 02 43          	or     %al,0x4302(%di)
    c27b:	0d 05 62             	or     $0x6205,%ax
    c27e:	c5 0c                	lds    (%si),%cx
    c280:	04 04                	add    $0x4,%al
    c282:	00 00                	add    %al,(%bx,%si)
    c284:	1c 00                	sbb    $0x0,%al
    c286:	00 00                	add    %al,(%bx,%si)
    c288:	ec                   	in     (%dx),%al
    c289:	09 00                	or     %ax,(%bx,%si)
    c28b:	00 3c                	add    %bh,(%si)
    c28d:	e2 ff                	loop   c28e <digits.1714+0xa02>
    c28f:	ff 19                	lcall  *(%bx,%di)
    c291:	00 00                	add    %al,(%bx,%si)
    c293:	00 00                	add    %al,(%bx,%si)
    c295:	42                   	inc    %dx
    c296:	0e                   	push   %cs
    c297:	08 85 02 43          	or     %al,0x4302(%di)
    c29b:	0d 05 52             	or     $0x5205,%ax
    c29e:	c5 0c                	lds    (%si),%cx
    c2a0:	04 04                	add    $0x4,%al
    c2a2:	00 00                	add    %al,(%bx,%si)
    c2a4:	20 00                	and    %al,(%bx,%si)
    c2a6:	00 00                	add    %al,(%bx,%si)
    c2a8:	0c 0a                	or     $0xa,%al
    c2aa:	00 00                	add    %al,(%bx,%si)
    c2ac:	35 e2 ff             	xor    $0xffe2,%ax
    c2af:	ff 36 00 00          	pushw  0x0
    c2b3:	00 00                	add    %al,(%bx,%si)
    c2b5:	42                   	inc    %dx
    c2b6:	0e                   	push   %cs
    c2b7:	08 85 02 43          	or     %al,0x4302(%di)
    c2bb:	0d 05 42             	or     $0x4205,%ax
    c2be:	83 03 6b             	addw   $0x6b,(%bp,%di)
    c2c1:	c3                   	ret    
    c2c2:	42                   	inc    %dx
    c2c3:	c5 0c                	lds    (%si),%cx
    c2c5:	04 04                	add    $0x4,%al
    c2c7:	00 1c                	add    %bl,(%si)
    c2c9:	00 00                	add    %al,(%bx,%si)
    c2cb:	00 30                	add    %dh,(%bx,%si)
    c2cd:	0a 00                	or     (%bx,%si),%al
    c2cf:	00 47 e2             	add    %al,-0x1e(%bx)
    c2d2:	ff                   	(bad)  
    c2d3:	ff                   	(bad)  
    c2d4:	3a 00                	cmp    (%bx,%si),%al
    c2d6:	00 00                	add    %al,(%bx,%si)
    c2d8:	00 42 0e             	add    %al,0xe(%bp,%si)
    c2db:	08 85 02 43          	or     %al,0x4302(%di)
    c2df:	0d 05 73             	or     $0x7305,%ax
    c2e2:	c5 0c                	lds    (%si),%cx
    c2e4:	04 04                	add    $0x4,%al
    c2e6:	00 00                	add    %al,(%bx,%si)
    c2e8:	1c 00                	sbb    $0x0,%al
    c2ea:	00 00                	add    %al,(%bx,%si)
    c2ec:	50                   	push   %ax
    c2ed:	0a 00                	or     (%bx,%si),%al
    c2ef:	00 61 e2             	add    %ah,-0x1e(%bx,%di)
    c2f2:	ff                   	(bad)  
    c2f3:	ff                   	(bad)  
    c2f4:	3a 00                	cmp    (%bx,%si),%al
    c2f6:	00 00                	add    %al,(%bx,%si)
    c2f8:	00 42 0e             	add    %al,0xe(%bp,%si)
    c2fb:	08 85 02 43          	or     %al,0x4302(%di)
    c2ff:	0d 05 73             	or     $0x7305,%ax
    c302:	c5 0c                	lds    (%si),%cx
    c304:	04 04                	add    $0x4,%al
    c306:	00 00                	add    %al,(%bx,%si)
    c308:	1c 00                	sbb    $0x0,%al
    c30a:	00 00                	add    %al,(%bx,%si)
    c30c:	70 0a                	jo     c318 <digits.1714+0xa8c>
    c30e:	00 00                	add    %al,(%bx,%si)
    c310:	7b e2                	jnp    c2f4 <digits.1714+0xa68>
    c312:	ff                   	(bad)  
    c313:	ff 10                	call   *(%bx,%si)
    c315:	00 00                	add    %al,(%bx,%si)
    c317:	00 00                	add    %al,(%bx,%si)
    c319:	42                   	inc    %dx
    c31a:	0e                   	push   %cs
    c31b:	08 85 02 43          	or     %al,0x4302(%di)
    c31f:	0d 05 49             	or     $0x4905,%ax
    c322:	c5 0c                	lds    (%si),%cx
    c324:	04 04                	add    $0x4,%al
    c326:	00 00                	add    %al,(%bx,%si)
    c328:	1c 00                	sbb    $0x0,%al
    c32a:	00 00                	add    %al,(%bx,%si)
    c32c:	90                   	nop
    c32d:	0a 00                	or     (%bx,%si),%al
    c32f:	00 6b e2             	add    %ch,-0x1e(%bp,%di)
    c332:	ff                   	(bad)  
    c333:	ff 34                	pushw  (%si)
    c335:	00 00                	add    %al,(%bx,%si)
    c337:	00 00                	add    %al,(%bx,%si)
    c339:	42                   	inc    %dx
    c33a:	0e                   	push   %cs
    c33b:	08 85 02 43          	or     %al,0x4302(%di)
    c33f:	0d 05 6d             	or     $0x6d05,%ax
    c342:	c5 0c                	lds    (%si),%cx
    c344:	04 04                	add    $0x4,%al
    c346:	00 00                	add    %al,(%bx,%si)
    c348:	18 00                	sbb    %al,(%bx,%si)
    c34a:	00 00                	add    %al,(%bx,%si)
    c34c:	b0 0a                	mov    $0xa,%al
    c34e:	00 00                	add    %al,(%bx,%si)
    c350:	7f e2                	jg     c334 <digits.1714+0xaa8>
    c352:	ff                   	(bad)  
    c353:	ff 8e 00 00          	decw   0x0(%bp)
    c357:	00 00                	add    %al,(%bx,%si)
    c359:	42                   	inc    %dx
    c35a:	0e                   	push   %cs
    c35b:	08 85 02 43          	or     %al,0x4302(%di)
    c35f:	0d 05 00             	or     $0x5,%ax
    c362:	00 00                	add    %al,(%bx,%si)
    c364:	1c 00                	sbb    $0x0,%al
    c366:	00 00                	add    %al,(%bx,%si)
    c368:	cc                   	int3   
    c369:	0a 00                	or     (%bx,%si),%al
    c36b:	00 f1                	add    %dh,%cl
    c36d:	e2 ff                	loop   c36e <digits.1714+0xae2>
    c36f:	ff 0c                	decw   (%si)
    c371:	00 00                	add    %al,(%bx,%si)
    c373:	00 00                	add    %al,(%bx,%si)
    c375:	42                   	inc    %dx
    c376:	0e                   	push   %cs
    c377:	08 85 02 43          	or     %al,0x4302(%di)
    c37b:	0d 05 45             	or     $0x4505,%ax
    c37e:	c5 0c                	lds    (%si),%cx
    c380:	04 04                	add    $0x4,%al
    c382:	00 00                	add    %al,(%bx,%si)
    c384:	1c 00                	sbb    $0x0,%al
    c386:	00 00                	add    %al,(%bx,%si)
    c388:	ec                   	in     (%dx),%al
    c389:	0a 00                	or     (%bx,%si),%al
    c38b:	00 dd                	add    %bl,%ch
    c38d:	e2 ff                	loop   c38e <digits.1714+0xb02>
    c38f:	ff 16 00 00          	call   *0x0
    c393:	00 00                	add    %al,(%bx,%si)
    c395:	42                   	inc    %dx
    c396:	0e                   	push   %cs
    c397:	08 85 02 43          	or     %al,0x4302(%di)
    c39b:	0d 05 4f             	or     $0x4f05,%ax
    c39e:	c5 0c                	lds    (%si),%cx
    c3a0:	04 04                	add    $0x4,%al
    c3a2:	00 00                	add    %al,(%bx,%si)
    c3a4:	1c 00                	sbb    $0x0,%al
    c3a6:	00 00                	add    %al,(%bx,%si)
    c3a8:	0c 0b                	or     $0xb,%al
    c3aa:	00 00                	add    %al,(%bx,%si)
    c3ac:	d3 e2                	shl    %cl,%dx
    c3ae:	ff                   	(bad)  
    c3af:	ff 16 00 00          	call   *0x0
    c3b3:	00 00                	add    %al,(%bx,%si)
    c3b5:	42                   	inc    %dx
    c3b6:	0e                   	push   %cs
    c3b7:	08 85 02 43          	or     %al,0x4302(%di)
    c3bb:	0d 05 4f             	or     $0x4f05,%ax
    c3be:	c5 0c                	lds    (%si),%cx
    c3c0:	04 04                	add    $0x4,%al
    c3c2:	00 00                	add    %al,(%bx,%si)
    c3c4:	1c 00                	sbb    $0x0,%al
    c3c6:	00 00                	add    %al,(%bx,%si)
    c3c8:	2c 0b                	sub    $0xb,%al
    c3ca:	00 00                	add    %al,(%bx,%si)
    c3cc:	c9                   	leave  
    c3cd:	e2 ff                	loop   c3ce <digits.1714+0xb42>
    c3cf:	ff 26 00 00          	jmp    *0x0
    c3d3:	00 00                	add    %al,(%bx,%si)
    c3d5:	42                   	inc    %dx
    c3d6:	0e                   	push   %cs
    c3d7:	08 85 02 43          	or     %al,0x4302(%di)
    c3db:	0d 05 5f             	or     $0x5f05,%ax
    c3de:	c5 0c                	lds    (%si),%cx
    c3e0:	04 04                	add    $0x4,%al
    c3e2:	00 00                	add    %al,(%bx,%si)
    c3e4:	1c 00                	sbb    $0x0,%al
    c3e6:	00 00                	add    %al,(%bx,%si)
    c3e8:	4c                   	dec    %sp
    c3e9:	0b 00                	or     (%bx,%si),%ax
    c3eb:	00 cf                	add    %cl,%bh
    c3ed:	e2 ff                	loop   c3ee <digits.1714+0xb62>
    c3ef:	ff 26 00 00          	jmp    *0x0
    c3f3:	00 00                	add    %al,(%bx,%si)
    c3f5:	42                   	inc    %dx
    c3f6:	0e                   	push   %cs
    c3f7:	08 85 02 43          	or     %al,0x4302(%di)
    c3fb:	0d 05 5f             	or     $0x5f05,%ax
    c3fe:	c5 0c                	lds    (%si),%cx
    c400:	04 04                	add    $0x4,%al
    c402:	00 00                	add    %al,(%bx,%si)
    c404:	1c 00                	sbb    $0x0,%al
    c406:	00 00                	add    %al,(%bx,%si)
    c408:	6c                   	insb   (%dx),%es:(%di)
    c409:	0b 00                	or     (%bx,%si),%ax
    c40b:	00 d5                	add    %dl,%ch
    c40d:	e2 ff                	loop   c40e <digits.1714+0xb82>
    c40f:	ff 27                	jmp    *(%bx)
    c411:	00 00                	add    %al,(%bx,%si)
    c413:	00 00                	add    %al,(%bx,%si)
    c415:	42                   	inc    %dx
    c416:	0e                   	push   %cs
    c417:	08 85 02 43          	or     %al,0x4302(%di)
    c41b:	0d 05 60             	or     $0x6005,%ax
    c41e:	c5 0c                	lds    (%si),%cx
    c420:	04 04                	add    $0x4,%al
    c422:	00 00                	add    %al,(%bx,%si)
    c424:	1c 00                	sbb    $0x0,%al
    c426:	00 00                	add    %al,(%bx,%si)
    c428:	8c 0b                	mov    %cs,(%bp,%di)
    c42a:	00 00                	add    %al,(%bx,%si)
    c42c:	dc e2                	fsub   %st,%st(2)
    c42e:	ff                   	(bad)  
    c42f:	ff                   	(bad)  
    c430:	be 00 00             	mov    $0x0,%si
    c433:	00 00                	add    %al,(%bx,%si)
    c435:	42                   	inc    %dx
    c436:	0e                   	push   %cs
    c437:	08 85 02 43          	or     %al,0x4302(%di)
    c43b:	0d 05 02             	or     $0x205,%ax
    c43e:	b7 c5                	mov    $0xc5,%bh
    c440:	0c 04                	or     $0x4,%al
    c442:	04 00                	add    $0x0,%al
    c444:	1c 00                	sbb    $0x0,%al
    c446:	00 00                	add    %al,(%bx,%si)
    c448:	ac                   	lods   %ds:(%si),%al
    c449:	0b 00                	or     (%bx,%si),%ax
    c44b:	00 7a e3             	add    %bh,-0x1d(%bp,%si)
    c44e:	ff                   	(bad)  
    c44f:	ff 16 00 00          	call   *0x0
    c453:	00 00                	add    %al,(%bx,%si)
    c455:	42                   	inc    %dx
    c456:	0e                   	push   %cs
    c457:	08 85 02 43          	or     %al,0x4302(%di)
    c45b:	0d 05 4f             	or     $0x4f05,%ax
    c45e:	c5 0c                	lds    (%si),%cx
    c460:	04 04                	add    $0x4,%al
    c462:	00 00                	add    %al,(%bx,%si)
    c464:	1c 00                	sbb    $0x0,%al
    c466:	00 00                	add    %al,(%bx,%si)
    c468:	cc                   	int3   
    c469:	0b 00                	or     (%bx,%si),%ax
    c46b:	00 70 e3             	add    %dh,-0x1d(%bx,%si)
    c46e:	ff                   	(bad)  
    c46f:	ff 45 00             	incw   0x0(%di)
    c472:	00 00                	add    %al,(%bx,%si)
    c474:	00 42 0e             	add    %al,0xe(%bp,%si)
    c477:	08 85 02 43          	or     %al,0x4302(%di)
    c47b:	0d 05 7e             	or     $0x7e05,%ax
    c47e:	c5 0c                	lds    (%si),%cx
    c480:	04 04                	add    $0x4,%al
    c482:	00 00                	add    %al,(%bx,%si)
    c484:	1c 00                	sbb    $0x0,%al
    c486:	00 00                	add    %al,(%bx,%si)
    c488:	ec                   	in     (%dx),%al
    c489:	0b 00                	or     (%bx,%si),%ax
    c48b:	00 bf e3 ff          	add    %bh,-0x1d(%bx)
    c48f:	ff 30                	pushw  (%bx,%si)
    c491:	00 00                	add    %al,(%bx,%si)
    c493:	00 00                	add    %al,(%bx,%si)
    c495:	42                   	inc    %dx
    c496:	0e                   	push   %cs
    c497:	08 85 02 43          	or     %al,0x4302(%di)
    c49b:	0d 05 69             	or     $0x6905,%ax
    c49e:	c5 0c                	lds    (%si),%cx
    c4a0:	04 04                	add    $0x4,%al
    c4a2:	00 00                	add    %al,(%bx,%si)
    c4a4:	20 00                	and    %al,(%bx,%si)
    c4a6:	00 00                	add    %al,(%bx,%si)
    c4a8:	0c 0c                	or     $0xc,%al
    c4aa:	00 00                	add    %al,(%bx,%si)
    c4ac:	cf                   	iret   
    c4ad:	e3 ff                	jcxz   c4ae <digits.1714+0xc22>
    c4af:	ff 88 00 00          	decw   0x0(%bx,%si)
    c4b3:	00 00                	add    %al,(%bx,%si)
    c4b5:	42                   	inc    %dx
    c4b6:	0e                   	push   %cs
    c4b7:	08 85 02 43          	or     %al,0x4302(%di)
    c4bb:	0d 05 46             	or     $0x4605,%ax
    c4be:	83 03 02             	addw   $0x2,(%bp,%di)
    c4c1:	79 c3                	jns    c486 <digits.1714+0xbfa>
    c4c3:	42                   	inc    %dx
    c4c4:	c5 0c                	lds    (%si),%cx
    c4c6:	04 04                	add    $0x4,%al
    c4c8:	24 00                	and    $0x0,%al
    c4ca:	00 00                	add    %al,(%bx,%si)
    c4cc:	30 0c                	xor    %cl,(%si)
    c4ce:	00 00                	add    %al,(%bx,%si)
    c4d0:	33 e4                	xor    %sp,%sp
    c4d2:	ff                   	(bad)  
    c4d3:	ff                   	(bad)  
    c4d4:	3b 03                	cmp    (%bp,%di),%ax
    c4d6:	00 00                	add    %al,(%bx,%si)
    c4d8:	00 42 0e             	add    %al,0xe(%bp,%si)
    c4db:	08 85 02 43          	or     %al,0x4302(%di)
    c4df:	0d 05 46             	or     $0x4605,%ax
    c4e2:	83 03 03             	addw   $0x3,(%bp,%di)
    c4e5:	2c 03                	sub    $0x3,%al
    c4e7:	c3                   	ret    
    c4e8:	42                   	inc    %dx
    c4e9:	c5 0c                	lds    (%si),%cx
    c4eb:	04 04                	add    $0x4,%al
    c4ed:	00 00                	add    %al,(%bx,%si)
    c4ef:	00 1c                	add    %bl,(%si)
    c4f1:	00 00                	add    %al,(%bx,%si)
    c4f3:	00 58 0c             	add    %bl,0xc(%bx,%si)
    c4f6:	00 00                	add    %al,(%bx,%si)
    c4f8:	46                   	inc    %si
    c4f9:	e7 ff                	out    %ax,$0xff
    c4fb:	ff                   	(bad)  
    c4fc:	ed                   	in     (%dx),%ax
    c4fd:	05 00 00             	add    $0x0,%ax
    c500:	00 42 0e             	add    %al,0xe(%bp,%si)
    c503:	08 85 02 43          	or     %al,0x4302(%di)
    c507:	0d 05 03             	or     $0x305,%ax
    c50a:	e6 05                	out    %al,$0x5
    c50c:	c5 0c                	lds    (%si),%cx
    c50e:	04 04                	add    $0x4,%al
    c510:	1c 00                	sbb    $0x0,%al
    c512:	00 00                	add    %al,(%bx,%si)
    c514:	78 0c                	js     c522 <digits.1714+0xc96>
    c516:	00 00                	add    %al,(%bx,%si)
    c518:	13 ed                	adc    %bp,%bp
    c51a:	ff                   	(bad)  
    c51b:	ff 40 00             	incw   0x0(%bx,%si)
    c51e:	00 00                	add    %al,(%bx,%si)
    c520:	00 42 0e             	add    %al,0xe(%bp,%si)
    c523:	08 85 02 43          	or     %al,0x4302(%di)
    c527:	0d 05 79             	or     $0x7905,%ax
    c52a:	c5 0c                	lds    (%si),%cx
    c52c:	04 04                	add    $0x4,%al
    c52e:	00 00                	add    %al,(%bx,%si)
    c530:	1c 00                	sbb    $0x0,%al
    c532:	00 00                	add    %al,(%bx,%si)
    c534:	98                   	cbtw   
    c535:	0c 00                	or     $0x0,%al
    c537:	00 33                	add    %dh,(%bp,%di)
    c539:	ed                   	in     (%dx),%ax
    c53a:	ff                   	(bad)  
    c53b:	ff 4a 00             	decw   0x0(%bp,%si)
    c53e:	00 00                	add    %al,(%bx,%si)
    c540:	00 42 0e             	add    %al,0xe(%bp,%si)
    c543:	08 85 02 43          	or     %al,0x4302(%di)
    c547:	0d 05 02             	or     $0x205,%ax
    c54a:	43                   	inc    %bx
    c54b:	c5 0c                	lds    (%si),%cx
    c54d:	04 04                	add    $0x4,%al
    c54f:	00 1c                	add    %bl,(%si)
    c551:	00 00                	add    %al,(%bx,%si)
    c553:	00 b8 0c 00          	add    %bh,0xc(%bx,%si)
    c557:	00 5d ed             	add    %bl,-0x13(%di)
    c55a:	ff                   	(bad)  
    c55b:	ff 55 00             	call   *0x0(%di)
    c55e:	00 00                	add    %al,(%bx,%si)
    c560:	00 42 0e             	add    %al,0xe(%bp,%si)
    c563:	08 85 02 43          	or     %al,0x4302(%di)
    c567:	0d 05 02             	or     $0x205,%ax
    c56a:	4e                   	dec    %si
    c56b:	c5 0c                	lds    (%si),%cx
    c56d:	04 04                	add    $0x4,%al
    c56f:	00 1c                	add    %bl,(%si)
    c571:	00 00                	add    %al,(%bx,%si)
    c573:	00 d8                	add    %bl,%al
    c575:	0c 00                	or     $0x0,%al
    c577:	00 92 ed ff          	add    %dl,-0x13(%bp,%si)
    c57b:	ff 60 00             	jmp    *0x0(%bx,%si)
    c57e:	00 00                	add    %al,(%bx,%si)
    c580:	00 42 0e             	add    %al,0xe(%bp,%si)
    c583:	08 85 02 43          	or     %al,0x4302(%di)
    c587:	0d 05 02             	or     $0x205,%ax
    c58a:	59                   	pop    %cx
    c58b:	c5 0c                	lds    (%si),%cx
    c58d:	04 04                	add    $0x4,%al
    c58f:	00 1c                	add    %bl,(%si)
    c591:	00 00                	add    %al,(%bx,%si)
    c593:	00 f8                	add    %bh,%al
    c595:	0c 00                	or     $0x0,%al
    c597:	00 d2                	add    %dl,%dl
    c599:	ed                   	in     (%dx),%ax
    c59a:	ff                   	(bad)  
    c59b:	ff d3                	call   *%bx
    c59d:	00 00                	add    %al,(%bx,%si)
    c59f:	00 00                	add    %al,(%bx,%si)
    c5a1:	42                   	inc    %dx
    c5a2:	0e                   	push   %cs
    c5a3:	08 85 02 43          	or     %al,0x4302(%di)
    c5a7:	0d 05 02             	or     $0x205,%ax
    c5aa:	cc                   	int3   
    c5ab:	c5 0c                	lds    (%si),%cx
    c5ad:	04 04                	add    $0x4,%al
    c5af:	00 1c                	add    %bl,(%si)
    c5b1:	00 00                	add    %al,(%bx,%si)
    c5b3:	00 18                	add    %bl,(%bx,%si)
    c5b5:	0d 00 00             	or     $0x0,%ax
    c5b8:	85 ee                	test   %bp,%si
    c5ba:	ff                   	(bad)  
    c5bb:	ff 46 00             	incw   0x0(%bp)
    c5be:	00 00                	add    %al,(%bx,%si)
    c5c0:	00 42 0e             	add    %al,0xe(%bp,%si)
    c5c3:	08 85 02 43          	or     %al,0x4302(%di)
    c5c7:	0d 05 7f             	or     $0x7f05,%ax
    c5ca:	c5 0c                	lds    (%si),%cx
    c5cc:	04 04                	add    $0x4,%al
    c5ce:	00 00                	add    %al,(%bx,%si)
    c5d0:	1c 00                	sbb    $0x0,%al
    c5d2:	00 00                	add    %al,(%bx,%si)
    c5d4:	38 0d                	cmp    %cl,(%di)
    c5d6:	00 00                	add    %al,(%bx,%si)
    c5d8:	ab                   	stos   %ax,%es:(%di)
    c5d9:	ee                   	out    %al,(%dx)
    c5da:	ff                   	(bad)  
    c5db:	ff 1a                	lcall  *(%bp,%si)
    c5dd:	00 00                	add    %al,(%bx,%si)
    c5df:	00 00                	add    %al,(%bx,%si)
    c5e1:	42                   	inc    %dx
    c5e2:	0e                   	push   %cs
    c5e3:	08 85 02 43          	or     %al,0x4302(%di)
    c5e7:	0d 05 53             	or     $0x5305,%ax
    c5ea:	c5 0c                	lds    (%si),%cx
    c5ec:	04 04                	add    $0x4,%al
	...

Disassembly of section .videocards:

0000c5f0 <video_cards>:
    c5f0:	29 b6 00 00          	sub    %si,0x0(%bp)
    c5f4:	a0 98 00             	mov    0x98,%al
    c5f7:	00 9f 96 00          	add    %bl,0x96(%bx)
	...
    c607:	00 00                	add    %al,(%bx,%si)
    c609:	02 00                	add    (%bx,%si),%al
    c60b:	02 30                	add    (%bx,%si),%dh

0000c60c <video_vga>:
    c60c:	30 b6 00 00          	xor    %dh,0x0(%bp)
    c610:	eb 9e                	jmp    c5b0 <digits.1714+0xd24>
    c612:	00 00                	add    %al,(%bx,%si)
    c614:	84 9f 00 00          	test   %bl,0x0(%bx)
	...

0000c628 <video_bios>:
    c628:	64 b6 00             	fs mov $0x0,%dh
    c62b:	00 d7                	add    %dl,%bh
    c62d:	a1 00 00             	mov    0x0,%ax
    c630:	c3                   	ret    
    c631:	a2 00 00             	mov    %al,0x0
	...
    c63c:	01 00                	add    %ax,(%bx,%si)
    c63e:	00 00                	add    %al,(%bx,%si)
    c640:	00 01                	add    %al,(%bx,%di)
    c642:	80                   	.byte 0x80
	...

Disassembly of section .data:

0000c660 <HEAP>:
    c660:	10 d6                	adc    %dl,%dh
	...

0000c664 <heap_end>:
    c664:	10 d6                	adc    %dl,%dh
	...

0000c680 <vga_modes>:
    c680:	00 0f                	add    %cl,(%bx)
    c682:	50                   	push   %ax
    c683:	00 19                	add    %bl,(%bx,%di)
    c685:	00 00                	add    %al,(%bx,%si)
    c687:	00 01                	add    %al,(%bx,%di)
    c689:	0f 50                	(bad)  
    c68b:	00 32                	add    %dh,(%bp,%si)
    c68d:	00 00                	add    %al,(%bx,%si)
    c68f:	00 02                	add    %al,(%bp,%si)
    c691:	0f 50                	(bad)  
    c693:	00 2b                	add    %ch,(%bp,%di)
    c695:	00 00                	add    %al,(%bx,%si)
    c697:	00 03                	add    %al,(%bp,%di)
    c699:	0f 50                	(bad)  
    c69b:	00 1c                	add    %bl,(%si)
    c69d:	00 00                	add    %al,(%bx,%si)
    c69f:	00 05                	add    %al,(%di)
    c6a1:	0f 50                	(bad)  
    c6a3:	00 1e 00 00          	add    %bl,0x0
    c6a7:	00 06 0f 50          	add    %al,0x500f
    c6ab:	00 22                	add    %ah,(%bp,%si)
    c6ad:	00 00                	add    %al,(%bx,%si)
    c6af:	00 07                	add    %al,(%bx)
    c6b1:	0f 50                	(bad)  
    c6b3:	00 3c                	add    %bh,(%si)
    c6b5:	00 00                	add    %al,(%bx,%si)
	...

0000c6b8 <ega_modes>:
    c6b8:	00 0f                	add    %cl,(%bx)
    c6ba:	50                   	push   %ax
    c6bb:	00 19                	add    %bl,(%bx,%di)
    c6bd:	00 00                	add    %al,(%bx,%si)
    c6bf:	00 01                	add    %al,(%bx,%di)
    c6c1:	0f 50                	(bad)  
    c6c3:	00 2b                	add    %ch,(%bp,%di)
    c6c5:	00 00                	add    %al,(%bx,%si)
	...

0000c6c8 <cga_modes>:
    c6c8:	00 0f                	add    %cl,(%bx)
    c6ca:	50                   	push   %ax
    c6cb:	00 19                	add    %bl,(%bx,%di)
    c6cd:	00 00                	add    %al,(%bx,%si)
	...

0000c6d0 <mode_lists.1791>:
    c6d0:	c8 c6 00 00          	enter  $0xc6,$0x0
    c6d4:	b8 c6 00             	mov    $0xc6,%ax
    c6d7:	00 80 c6 00          	add    %al,0xc6(%bx,%si)
	...

0000c6dc <card_name.1790>:
    c6dc:	54                   	push   %sp
    c6dd:	b6 00                	mov    $0x0,%dh
    c6df:	00 60 b6             	add    %ah,-0x4a(%bx,%si)
    c6e2:	00 00                	add    %al,(%bx,%si)
    c6e4:	30 b6 00 00          	xor    %dh,0x0(%bp)

0000c6e8 <mode_count.1792>:
    c6e8:	01 00                	add    %ax,(%bx,%si)
    c6ea:	00 00                	add    %al,(%bx,%si)
    c6ec:	02 00                	add    (%bx,%si),%al
    c6ee:	00 00                	add    %al,(%bx,%si)
    c6f0:	07                   	pop    %es
    c6f1:	00 00                	add    %al,(%bx,%si)
	...

Disassembly of section .bss:

0000c700 <__bss_start>:
	...

0000c714 <probed.1765>:
	...

0000c720 <vginfo>:
	...

0000c820 <vminfo>:
	...

0000c920 <gdt.1716>:
    c920:	00 00                	add    %al,(%bx,%si)
    c922:	00 00                	add    %al,(%bx,%si)
	...

0000c926 <__bss_end>:
	...

0000c930 <params>:
	...

0000d5f8 <do_restore>:
    d5f8:	00 00                	add    %al,(%bx,%si)
	...

0000d5fc <video_segment>:
    d5fc:	00 00                	add    %al,(%bx,%si)
	...

0000d600 <adapter>:
    d600:	00 00                	add    %al,(%bx,%si)
	...

0000d604 <force_y>:
    d604:	00 00                	add    %al,(%bx,%si)
	...

0000d608 <force_x>:
    d608:	00 00                	add    %al,(%bx,%si)
	...

0000d60c <graphic_mode>:
    d60c:	00 00                	add    %al,(%bx,%si)
	...

Disassembly of section .comment:

00000000 <.comment>:
   0:	47                   	inc    %di
   1:	43                   	inc    %bx
   2:	43                   	inc    %bx
   3:	3a 20                	cmp    (%bx,%si),%ah
   5:	28 55 62             	sub    %dl,0x62(%di)
   8:	75 6e                	jne    78 <setup-0x7c88>
   a:	74 75                	je     81 <setup-0x7c7f>
   c:	20 35                	and    %dh,(%di)
   e:	2e 34 2e             	cs xor $0x2e,%al
  11:	30 2d                	xor    %ch,(%di)
  13:	36 75 62             	ss jne 78 <setup-0x7c88>
  16:	75 6e                	jne    86 <setup-0x7c7a>
  18:	74 75                	je     8f <setup-0x7c71>
  1a:	31 7e 31             	xor    %di,0x31(%bp)
  1d:	36 2e 30 34          	ss xor %dh,%cs:(%si)
  21:	2e 39 29             	cmp    %bp,%cs:(%bx,%di)
  24:	20 35                	and    %dh,(%di)
  26:	2e 34 2e             	cs xor $0x2e,%al
  29:	30 20                	xor    %ah,(%bx,%si)
  2b:	32 30                	xor    (%bx,%si),%dh
  2d:	31 36 30 36          	xor    %si,0x3630
  31:	30 39                	xor    %bh,(%bx,%di)
	...
